 ConEmu.x64

 Timestamp is 53162e98 (Tue Mar 04 23:50:48 2014)

 Preferred load address is 0000000180000000

 Start         Length     Name                   Class
 0001:00000000 00034826H .text                   CODE
 0001:00034830 0000005eH .text$00                CODE
 0002:00000000 00000690H .idata$5                DATA
 0002:00000690 00003d52H .rdata                  DATA
 0002:000043e4 00000073H .rdata$debug            DATA
 0002:00004458 000012f8H .xdata                  DATA
 0002:00005750 00000078H .idata$2                DATA
 0002:000057c8 00000014H .idata$3                DATA
 0002:000057e0 00000690H .idata$4                DATA
 0002:00005e70 00000ecaH .idata$6                DATA
 0002:00006d40 0000033bH .edata                  DATA
 0003:00000000 000001e0H .data                   DATA
 0003:000001e0 00002259H .bss                    DATA
 0004:00000000 00001a34H .pdata                  DATA
 0005:00000000 00000058H .rsrc$01                DATA
 0005:00000060 00000290H .rsrc$02                DATA

  Address         Publics by Value              Rva+Base               Lib:Object

 0000:00000000       ___safe_se_handler_count   0000000000000000     <absolute>
 0000:00000000       ___safe_se_handler_table   0000000000000000     <absolute>
 0000:00000000       __ImageBase                0000000180000000     <linker-defined>
 0001:00000000       ?StartupHooks@@YAHPEAUHINSTANCE__@@@Z 0000000180001000 f   ConEmuInjects.obj
 0001:000004f0       ?ShutdownHooks@@YAXXZ      00000001800014f0 f   ConEmuInjects.obj
 0001:00000780       ??$wcscpy_c@$0EA@@@YAHAEAY0EA@_WPEB_W@Z 0000000180001780 f i ConEmuInjects.obj
 0001:000007b0       ?StringCchCopyW@@YAJPEA_W_KPEB_W@Z 00000001800017b0 f i ConEmuInjects.obj
 0001:00000940       ?pcc_Selected@@YA_NW4PluginMenuCommands@@@Z 0000000180001940 f   ConEmuPlugin.obj
 0001:000009c0       ?pcc_Disabled@@YA_NW4PluginMenuCommands@@@Z 00000001800019c0 f   ConEmuPlugin.obj
 0001:00000aa0       ?GetPluginInfoWcmn@@YAXPEAX@Z 0000000180001aa0 f   ConEmuPlugin.obj
 0001:00000af0       ?CheckConEmuDetached@@YAXXZ 0000000180001af0 f   ConEmuPlugin.obj
 0001:00000ba0       ??BHWND2@@QEBAKXZ          0000000180001ba0 f i ConEmuPlugin.obj
 0001:00000bb0       ?OpenPluginWcmn@@YAPEAXH_J_N@Z 0000000180001bb0 f   ConEmuPlugin.obj
 0001:00000f00       OpenPluginW                0000000180001f00 f   ConEmuPlugin.obj
 0001:00000f60       ?TouchReadPeekConsoleInputs@@YAXH@Z 0000000180001f60 f   ConEmuPlugin.obj
 0001:00000fb0       ?OnMainThreadActivated@@YAXXZ 0000000180001fb0 f   ConEmuPlugin.obj
 0001:00001270       ?IsFarLua@FarVersion@@QEBA_NXZ 0000000180002270 f i ConEmuPlugin.obj
 0001:000012d0       ?OnConsolePeekReadInput@@YAXH@Z 00000001800022d0 f   ConEmuPlugin.obj
 0001:00001520       ?ActiveServerPID@CESERVER_CONSOLE_MAPPING_HDR@@QEBAKXZ 0000000180002520 f i ConEmuPlugin.obj
 0001:00001560       ?OnPanelViewCallbacks@@YAHPEAUHookCallbackArg@@P6AHPEAXPEAU_INPUT_RECORD@@KPEAKPEAH@Z5@Z 0000000180002560 f   ConEmuPlugin.obj
 0001:000016a0       ?OnShellExecuteExW_Except@@YAXPEAUHookCallbackArg@@@Z 00000001800026a0 f   ConEmuPlugin.obj
 0001:000016e0       ?OnGetNumberOfConsoleInputEventsPost@@YAXPEAUHookCallbackArg@@@Z 00000001800026e0 f   ConEmuPlugin.obj
 0001:00001720       ?UngetDummyMouseEvent@@YAHHPEAUHookCallbackArg@@@Z 0000000180002720 f   ConEmuPlugin.obj
 0001:00001990       ??4HANDLE2@@QEAAAEAU0@PEAX@Z 0000000180002990 f i ConEmuPlugin.obj
 0001:000019b0       ?OnConsolePeekInput@@YAHPEAUHookCallbackArg@@@Z 00000001800029b0 f   ConEmuPlugin.obj
 0001:00001a40       ?OnConsolePeekInputPost@@YAXPEAUHookCallbackArg@@@Z 0000000180002a40 f   ConEmuPlugin.obj
 0001:00001a90       ?OnConsoleReadInputWork@@YAHPEAUHookCallbackArg@@@Z 0000000180002a90 f   ConEmuPlugin.obj
 0001:00001b40       ?OnConsoleReadInput@@YAHPEAUHookCallbackArg@@@Z 0000000180002b40 f   ConEmuPlugin.obj
 0001:00001b60       ?OnConsoleReadInputPost@@YAXPEAUHookCallbackArg@@@Z 0000000180002b60 f   ConEmuPlugin.obj
 0001:00001e10       ?OnWriteConsoleOutput@@YAHPEAUHookCallbackArg@@@Z 0000000180002e10 f   ConEmuPlugin.obj
 0001:00001f30       ProcessSynchroEventW       0000000180002f30 f   ConEmuPlugin.obj
 0001:00001ff0       ?ShutdownPluginStep@@YAXPEB_WHHHH@Z 0000000180002ff0 f   ConEmuPlugin.obj
 0001:00002010       DllMain                    0000000180003010 f   ConEmuPlugin.obj
 0001:00002330       ??_GMSection@@QEAAPEAXI@Z  0000000180003330 f i ConEmuPlugin.obj
 0001:00002370       ??_GCPluginBackground@@QEAAPEAXI@Z 0000000180003370 f i ConEmuPlugin.obj
 0001:000023b0       _DllMainCRTStartup         00000001800033b0 f   ConEmuPlugin.obj
 0001:000023e0       ?IsConsoleActive@@YAHXZ    00000001800033e0 f   ConEmuPlugin.obj
 0001:00002460       ?GetFarHWND2@@YAPEAUHWND__@@H@Z 0000000180003460 f   ConEmuPlugin.obj
 0001:000024e0       ?GetFarHWND@@YAPEAUHWND__@@XZ 00000001800034e0 f   ConEmuPlugin.obj
 0001:000024f0       ?IsTerminalMode@@YAHXZ     00000001800034f0 f   ConEmuPlugin.obj
 0001:00002500       ?GetFarVersion@@YAXPEAUFarVersion@@@Z 0000000180003500 f   ConEmuPlugin.obj
 0001:00002520       ?LoadFarVersion@@YAHXZ     0000000180003520 f   ConEmuPlugin.obj
 0001:00002900       ?RegisterPanelView@@YAHPEAUPanelViewInit@@@Z 0000000180003900 f   ConEmuPlugin.obj
 0001:00002bd0       ?RegisterBackground@@YAHPEAURegisterBackgroundArg@@@Z 0000000180003bd0 f   ConEmuPlugin.obj
 0001:00002c70       ?SyncExecute@@YAHPEAUHINSTANCE__@@P6AX_J@Z1@Z 0000000180003c70 f   ConEmuPlugin.obj
 0001:00002ce0       ?ActivateConsole@@YAHXZ    0000000180003ce0 f   ConEmuPlugin.obj
 0001:00002da0       ??BHWND2@@QEBAPEAUHWND__@@XZ 0000000180003da0 f i ConEmuPlugin.obj
 0001:00002db0       ??4HWND2@@QEAAAEAU0@PEAUHWND__@@@Z 0000000180003db0 f i ConEmuPlugin.obj
 0001:00002dd0       ?ExecuteSynchro@@YAXXZ     0000000180003dd0 f   ConEmuPlugin.obj
 0001:00002e90       ?ProcessCommand@@YAHKHPEAXPEAPEAUCESERVER_REQ@@@Z 0000000180003e90 f   ConEmuPlugin.obj
 0001:00003f90       ?StringCchCatW@@YAJPEA_W_KPEB_W@Z 0000000180004f90 f i ConEmuPlugin.obj
 0001:000046e0       ?FarSetConsoleSize@@YAHFF@Z 00000001800056e0 f   ConEmuPlugin.obj
 0001:00004820       ?OnConsoleDetaching@@YAHPEAUHookCallbackArg@@@Z 0000000180005820 f   ConEmuPlugin.obj
 0001:00004970       ?OnConsoleWasAttached@@YAXPEAUHookCallbackArg@@@Z 0000000180005970 f   ConEmuPlugin.obj
 0001:000049d0       ?MonitorThreadProcW@@YAKPEAX@Z 00000001800059d0 f   ConEmuPlugin.obj
 0001:00004dc0       ?CommonPluginStartup@@YAXXZ 0000000180005dc0 f   ConEmuPlugin.obj
 0001:00004ee0       SetStartupInfoW            0000000180005ee0 f   ConEmuPlugin.obj
 0001:00004f50       ?CloseMapHeader@@YAXXZ     0000000180005f50 f   ConEmuPlugin.obj
 0001:00004f80       ?OpenMapHeader@@YAHXZ      0000000180005f80 f   ConEmuPlugin.obj
 0001:00005060       ?InitRootKey@@YAXXZ        0000000180006060 f   ConEmuPlugin.obj
 0001:00005150       ?InitHWND@@YAXXZ           0000000180006150 f   ConEmuPlugin.obj
 0001:00005800       ?ReloadFarInfo@@YAHH@Z     0000000180006800 f   ConEmuPlugin.obj
 0001:00005d30       ?UpdateConEmuTabsW@@YA_NH_N0PEAX@Z 0000000180006d30 f   ConEmuPlugin.obj
 0001:00005e50       ?UpdateConEmuTabs@@YA_NH_N0PEAX@Z 0000000180006e50 f   ConEmuPlugin.obj
 0001:000060e0       ?CreateTabs@@YAHH@Z        00000001800070e0 f   ConEmuPlugin.obj
 0001:000061f0       ?AddTab@@YAHAEAH_N1HPEB_W2HHHH@Z 00000001800071f0 f   ConEmuPlugin.obj
 0001:000067d0       wmemcmp                    00000001800077d0 f i ConEmuPlugin.obj
 0001:00006860       ?SendTabs@@YAXHH@Z         0000000180007860 f   ConEmuPlugin.obj
 0001:00006a90       ProcessEditorInputW        0000000180007a90 f   ConEmuPlugin.obj
 0001:00006ae0       ProcessEditorEventW        0000000180007ae0 f   ConEmuPlugin.obj
 0001:00006b90       ProcessViewerEventW        0000000180007b90 f   ConEmuPlugin.obj
 0001:00006c30       ?FillLoadedParm@@YAXPEAUConEmuLoadedArg@@PEAUHINSTANCE__@@H@Z 0000000180007c30 f   ConEmuPlugin.obj
 0001:00006d70       ?NotifyConEmuUnloaded@@YAXXZ 0000000180007d70 f   ConEmuPlugin.obj
 0001:00006ec0       ?StopThread@@YAXXZ         0000000180007ec0 f   ConEmuPlugin.obj
 0001:000072d0       ??_G?$MFileMapping@UCESERVER_CONSOLE_MAPPING_HDR@@@@QEAAPEAXI@Z 00000001800082d0 f i ConEmuPlugin.obj
 0001:00007310       ProcessDialogEventW        0000000180008310 f   ConEmuPlugin.obj
 0001:00007320       ?OpenW@@YAPEAXPEBX@Z       0000000180008320 f   ConEmuPlugin.obj
 0001:00007380       ?ProcessConsoleInputW@@YA_JPEAX@Z 0000000180008380 f   ConEmuPlugin.obj
 0001:000073c0       ?ProcessEditorEventW3@@YA_JPEAX@Z 00000001800083c0 f   ConEmuPlugin.obj
 0001:00007400       ?ProcessViewerEventW3@@YA_JPEAX@Z 0000000180008400 f   ConEmuPlugin.obj
 0001:00007440       ?ProcessDialogEventW3@@YA_JPEAX@Z 0000000180008440 f   ConEmuPlugin.obj
 0001:00007480       ?ProcessSynchroEventW3@@YA_JPEAX@Z 0000000180008480 f   ConEmuPlugin.obj
 0001:000074c0       ?ExitFarCmn@@YAXXZ         00000001800084c0 f   ConEmuPlugin.obj
 0001:00007520       ExitFARW                   0000000180008520 f   ConEmuPlugin.obj
 0001:000075b0       ?ExitFARW3@@YAXPEAX@Z      00000001800085b0 f   ConEmuPlugin.obj
 0001:00007610       ?CheckResources@@YAXH@Z    0000000180008610 f   ConEmuPlugin.obj
 0001:00007780       ?InitResources@@YAXXZ      0000000180008780 f   ConEmuPlugin.obj
 0001:00007b20       ?StringCchCopyNW@@YAJPEA_W_KPEB_W1@Z 0000000180008b20 f i ConEmuPlugin.obj
 0001:00007bb0       ?DataSize@CESERVER_REQ@@QEAAKXZ 0000000180008bb0 f i ConEmuPlugin.obj
 0001:00007bf0       ?CloseTabs@@YAXXZ          0000000180008bf0 f   ConEmuPlugin.obj
 0001:00007c80       ?OutDataAlloc@@YAHK@Z      0000000180008c80 f   ConEmuPlugin.obj
 0001:00007d00       ?OutDataRealloc@@YAHK@Z    0000000180008d00 f   ConEmuPlugin.obj
 0001:00007e00       ?OutDataWrite@@YAHPEAXK@Z  0000000180008e00 f   ConEmuPlugin.obj
 0001:00007ef0       ?ShowMessage@@YAHHH@Z      0000000180008ef0 f   ConEmuPlugin.obj
 0001:00007f70       ?ShowMessage@@YAHPEB_WH_N@Z 0000000180008f70 f   ConEmuPlugin.obj
 0001:000080a0       ?ShowMessageGui@@YAHHH@Z   00000001800090a0 f   ConEmuPlugin.obj
 0001:00008180       ?GetMsgW@@YAPEB_WH@Z       0000000180009180 f   ConEmuPlugin.obj
 0001:000081f0       ?PostMacro@@YAXPEB_WPEAU_INPUT_RECORD@@@Z 00000001800091f0 f   ConEmuPlugin.obj
 0001:000083b0       ?ShowPluginMenu@@YAXW4PluginCallCommands@@@Z 00000001800093b0 f   ConEmuPlugin.obj
 0001:00009000       ?FindServerCmd@@YAHKAEAK_N@Z 000000018000a000 f   ConEmuPlugin.obj
 0001:00009120       ?Attach2Gui@@YAHXZ         000000018000a120 f   ConEmuPlugin.obj
 0001:00009690       ?StartDebugger@@YAHXZ      000000018000a690 f   ConEmuPlugin.obj
 0001:00009a20       ?wcsrchr@@YAPEA_WPEA_W_W@Z 000000018000aa20 f i ConEmuPlugin.obj
 0001:00009a50       ?IsMacroActive@@YAHXZ      000000018000aa50 f   ConEmuPlugin.obj
 0001:00009ad0       ?GetMacroArea@@YAHXZ       000000018000aad0 f   ConEmuPlugin.obj
 0001:00009b40       ?RedrawAll@@YAXXZ          000000018000ab40 f   ConEmuPlugin.obj
 0001:00009ba0       ?GetEditorModifiedState@@YAKXZ 000000018000aba0 f   ConEmuPlugin.obj
 0001:00009c00       ?GetActiveWindowType@@YAHXZ 000000018000ac00 f   ConEmuPlugin.obj
 0001:00009c60       ?RunExternalProgramW@@YA_NPEA_W0_N@Z 000000018000ac60 f   ConEmuPlugin.obj
 0001:00009f40       ?Disable@MWow64Disable@@QEAAXXZ 000000018000af40 f i ConEmuPlugin.obj
 0001:00009f80       ?Restore@MWow64Disable@@QEAAXXZ 000000018000af80 f i ConEmuPlugin.obj
 0001:00009fd0       ??0MWow64Disable@@QEAA@XZ  000000018000afd0 f i ConEmuPlugin.obj
 0001:0000a070       ??1MWow64Disable@@QEAA@XZ  000000018000b070 f i ConEmuPlugin.obj
 0001:0000a090       ?ShowConsoleInfo@@YAXXZ    000000018000b090 f   ConEmuPlugin.obj
 0001:0000a320       ?GetMainThreadId@@YAKXZ    000000018000b320 f   ConEmuPlugin.obj
 0001:0000a3d0       ?OnLibraryLoaded@@YAXPEAUHINSTANCE__@@@Z 000000018000b3d0 f   ConEmuPlugin.obj
 0001:0000a480       ?_calloc@@YAPEAX_K0@Z      000000018000b480 f   ConEmuPlugin.obj
 0001:0000a4b0       ?_malloc@@YAPEAX_K@Z       000000018000b4b0 f   ConEmuPlugin.obj
 0001:0000a4d0       ?_free@@YAXPEAX@Z          000000018000b4d0 f   ConEmuPlugin.obj
 0001:0000a4f0       ?Ptr@?$MFileMapping@UCESERVER_CONSOLE_MAPPING_HDR@@@@QEAAPEAUCESERVER_CONSOLE_MAPPING_HDR@@XZ 000000018000b4f0 f i ConEmuPlugin.obj
 0001:0000a500       ?InitName@?$MFileMapping@UCESERVER_CONSOLE_MAPPING_HDR@@@@QEAAPEB_WPEB_WKK@Z 000000018000b500 f i ConEmuPlugin.obj
 0001:0000a560       ?CloseMap@?$MFileMapping@UCESERVER_CONSOLE_MAPPING_HDR@@@@QEAAXXZ 000000018000b560 f i ConEmuPlugin.obj
 0001:0000a5f0       ?Open@?$MFileMapping@UCESERVER_CONSOLE_MAPPING_HDR@@@@QEAAPEAUCESERVER_CONSOLE_MAPPING_HDR@@HH@Z 000000018000b5f0 f i ConEmuPlugin.obj
 0001:0000a620       ??0?$MFileMapping@UCESERVER_CONSOLE_MAPPING_HDR@@@@QEAA@XZ 000000018000b620 f i ConEmuPlugin.obj
 0001:0000a690       ??1?$MFileMapping@UCESERVER_CONSOLE_MAPPING_HDR@@@@QEAA@XZ 000000018000b690 f i ConEmuPlugin.obj
 0001:0000a6c0       ?ClosePtr@?$MFileMapping@UCESERVER_CONSOLE_MAPPING_HDR@@@@QEAAXXZ 000000018000b6c0 f i ConEmuPlugin.obj
 0001:0000a700       ?InternalOpenCreate@?$MFileMapping@UCESERVER_CONSOLE_MAPPING_HDR@@@@IEAAPEAUCESERVER_CONSOLE_MAPPING_HDR@@HHH@Z 000000018000b700 f i ConEmuPlugin.obj
 0001:0000a9b0       ??$wcscpy_c@$0BBE@@@YAHAEAY0BBE@_WPEB_W@Z 000000018000b9b0 f i ConEmuPlugin.obj
 0001:0000a9e0       ??$wcscat_c@$0BBE@@@YAHAEAY0BBE@_WPEB_W@Z 000000018000b9e0 f i ConEmuPlugin.obj
 0001:0000aa10       ??$wcscat_c@$0CAE@@@YAHAEAY0CAE@_WPEB_W@Z 000000018000ba10 f i ConEmuPlugin.obj
 0001:0000aa40       ??$wcscpy_c@$0CAI@@@YAHAEAY0CAI@_WPEB_W@Z 000000018000ba40 f i ConEmuPlugin.obj
 0001:0000aa70       GetMinFarVersionW          000000018000ba70 f   ConEmuPlugin995.obj
 0001:0000aa80       ?GetPluginInfoW995@@YAXPEAX@Z 000000018000ba80 f   ConEmuPlugin995.obj
 0001:0000ab40       ?ProcessDragFromW995@@YAXXZ 000000018000bb40 f   ConEmuPlugin995.obj
 0001:0000b550       ?ProcessDragToW995@@YAXXZ  000000018000c550 f   ConEmuPlugin995.obj
 0001:0000baf0       ?SetStartupInfoW995@@YAXPEAX@Z 000000018000caf0 f   ConEmuPlugin995.obj
 0001:0000bd50       ?GetEditorModifiedStateW995@@YAKXZ 000000018000cd50 f   ConEmuPlugin995.obj
 0001:0000bdb0       ?ProcessEditorInputW995@@YAHPEBX@Z 000000018000cdb0 f   ConEmuPlugin995.obj
 0001:0000be30       ?UpdateConEmuTabsW995@@YA_NH_N0PEAX@Z 000000018000ce30 f   ConEmuPlugin995.obj
 0001:0000c410       ?ExitFARW995@@YAXXZ        000000018000d410 f   ConEmuPlugin995.obj
 0001:0000c4a0       ?ShowMessageW995@@YAHPEB_WH_N@Z 000000018000d4a0 f   ConEmuPlugin995.obj
 0001:0000c550       ?ShowMessageW995@@YAHHH@Z  000000018000d550 f   ConEmuPlugin995.obj
 0001:0000c5c0       ?GetMsgW995@@YAPEB_WH@Z    000000018000d5c0 f   ConEmuPlugin995.obj
 0001:0000c610       ?SetWindowW995@@YAXH@Z     000000018000d610 f   ConEmuPlugin995.obj
 0001:0000c690       ?PostMacroW995@@YAXPEB_WPEAU_INPUT_RECORD@@@Z 000000018000d690 f   ConEmuPlugin995.obj
 0001:0000c750       ?ShowPluginMenuW995@@YAHPEAUConEmuPluginMenuItem@@H@Z 000000018000d750 f   ConEmuPlugin995.obj
 0001:0000c9c0       ?EditOutputW995@@YAHPEB_WH@Z 000000018000d9c0 f   ConEmuPlugin995.obj
 0001:0000cae0       ?ExecuteSynchroW995@@YAHXZ 000000018000dae0 f   ConEmuPlugin995.obj
 0001:0000cb80       ?WaitEndSynchroW995@@YAXXZ 000000018000db80 f   ConEmuPlugin995.obj
 0001:0000cdc0       ?StopWaitEndSynchroW995@@YAXXZ 000000018000ddc0 f   ConEmuPlugin995.obj
 0001:0000ce00       ?IsMacroActiveW995@@YAHXZ  000000018000de00 f   ConEmuPlugin995.obj
 0001:0000ce70       ?GetMacroAreaW995@@YAHXZ   000000018000de70 f   ConEmuPlugin995.obj
 0001:0000cec0       ?RedrawAllW995@@YAXXZ      000000018000dec0 f   ConEmuPlugin995.obj
 0001:0000cf00       ?LoadPluginW995@@YA_NPEA_W@Z 000000018000df00 f   ConEmuPlugin995.obj
 0001:0000cf40       ?RunExternalProgramW995@@YA_NPEA_W@Z 000000018000df40 f   ConEmuPlugin995.obj
 0001:0000d2d0       ?wcschr@@YAPEA_WPEA_W_W@Z  000000018000e2d0 f i ConEmuPlugin995.obj
 0001:0000d300       ?wcsstr@@YAPEA_WPEA_WPEB_W@Z 000000018000e300 f i ConEmuPlugin995.obj
 0001:0000d330       ?ProcessCommandLineW995@@YA_NPEA_W@Z 000000018000e330 f   ConEmuPlugin995.obj
 0001:0000d390       ?LoadFarColorsW995@@YAXAEAY0BAA@E@Z 000000018000e390 f   ConEmuPlugin995.obj
 0001:0000d490       ?ReloadFarInfoW995@@YAHXZ  000000018000e490 f   ConEmuPlugin995.obj
 0001:0000d740       ?ExecuteQuitFar995@@YAXXZ  000000018000e740 f   ConEmuPlugin995.obj
 0001:0000d7a0       ?CheckBufferEnabledW995@@YAHXZ 000000018000e7a0 f   ConEmuPlugin995.obj
 0001:0000d870       ?FillUpdateBackgroundW995@@YAXPEAUPaintBackgroundArg@@@Z 000000018000e870 f   ConEmuPlugin995.obj
 0001:0000dd50       ?GetActiveWindowTypeW995@@YAHXZ 000000018000ed50 f   ConEmuPlugin995.obj
 0001:0000de60       ?GuiMacroDlgW995@@YAXXZ    000000018000ee60 f   ConEmuPlugin995.obj
 0001:0000e4e0       ?GetPluginInfoW1900@@YAXPEAX@Z 000000018000f4e0 f   ConEmuPlugin1900.obj
 0001:0000e570       ?ProcessDragFromW1900@@YAXXZ 000000018000f570 f   ConEmuPlugin1900.obj
 0001:0000f0a0       ?ProcessDragToW1900@@YAXXZ 00000001800100a0 f   ConEmuPlugin1900.obj
 0001:0000f6a0       ?SetStartupInfoW1900@@YAXPEAX@Z 00000001800106a0 f   ConEmuPlugin1900.obj
 0001:0000f860       ?GetEditorModifiedStateW1900@@YAKXZ 0000000180010860 f   ConEmuPlugin1900.obj
 0001:0000f8c0       ?ProcessEditorEventW1900@@YAHPEAX@Z 00000001800108c0 f   ConEmuPlugin1900.obj
 0001:0000f8f0       ?ProcessViewerEventW1900@@YAHPEAX@Z 00000001800108f0 f   ConEmuPlugin1900.obj
 0001:0000f920       ?ProcessDialogEventW1900@@YAHPEAX@Z 0000000180010920 f   ConEmuPlugin1900.obj
 0001:0000f950       ?ProcessSynchroEventW1900@@YAHPEAX@Z 0000000180010950 f   ConEmuPlugin1900.obj
 0001:0000f980       ?ProcessEditorInputW1900@@YAHPEBX@Z 0000000180010980 f   ConEmuPlugin1900.obj
 0001:0000fa00       ?UpdateConEmuTabsW1900@@YA_NH_N0PEAX@Z 0000000180010a00 f   ConEmuPlugin1900.obj
 0001:00010300       ?ExitFARW1900@@YAXXZ       0000000180011300 f   ConEmuPlugin1900.obj
 0001:00010390       ?ShowMessageW1900@@YAHPEB_WH_N@Z 0000000180011390 f   ConEmuPlugin1900.obj
 0001:00010490       ?ShowMessageW1900@@YAHHH@Z 0000000180011490 f   ConEmuPlugin1900.obj
 0001:00010500       ?GetMsgW1900@@YAPEB_WH@Z   0000000180011500 f   ConEmuPlugin1900.obj
 0001:00010550       ?SetWindowW1900@@YAXH@Z    0000000180011550 f   ConEmuPlugin1900.obj
 0001:000105c0       ?PostMacroW1900@@YAXPEB_WPEAU_INPUT_RECORD@@@Z 00000001800115c0 f   ConEmuPlugin1900.obj
 0001:000110f0       ?ShowPluginMenuW1900@@YAHPEAUConEmuPluginMenuItem@@H@Z 00000001800120f0 f   ConEmuPlugin1900.obj
 0001:00011420       ?EditOutputW1900@@YAHPEB_WH@Z 0000000180012420 f   ConEmuPlugin1900.obj
 0001:00011540       ?ExecuteSynchroW1900@@YAHXZ 0000000180012540 f   ConEmuPlugin1900.obj
 0001:000115e0       ?WaitEndSynchroW1900@@YAXXZ 00000001800125e0 f   ConEmuPlugin1900.obj
 0001:000115f0       ?StopWaitEndSynchroW1900@@YAXXZ 00000001800125f0 f   ConEmuPlugin1900.obj
 0001:00011630       ?IsMacroActiveW1900@@YAHXZ 0000000180012630 f   ConEmuPlugin1900.obj
 0001:00011680       ?GetMacroAreaW1900@@YAHXZ  0000000180012680 f   ConEmuPlugin1900.obj
 0001:000116b0       ?RedrawAllW1900@@YAXXZ     00000001800126b0 f   ConEmuPlugin1900.obj
 0001:000116f0       ?LoadPluginW1900@@YA_NPEA_W@Z 00000001800126f0 f   ConEmuPlugin1900.obj
 0001:00011730       ?RunExternalProgramW1900@@YA_NPEA_W@Z 0000000180012730 f   ConEmuPlugin1900.obj
 0001:00011ab0       ?ProcessCommandLineW1900@@YA_NPEA_W@Z 0000000180012ab0 f   ConEmuPlugin1900.obj
 0001:00011b10       ?LoadFarColorsW1900@@YAXAEAY0BAA@E@Z 0000000180012b10 f   ConEmuPlugin1900.obj
 0001:00011d40       ?FarColor_3_2@@YAEAEBUFarColor@@@Z 0000000180012d40 f i ConEmuPlugin1900.obj
 0001:00011e60       ?Color2FgIndex@Far3Color@@SAXKAEAG@Z 0000000180012e60 f i ConEmuPlugin1900.obj
 0001:00011ff0       ?Max@Far3Color@@SAHHH@Z    0000000180012ff0 f i ConEmuPlugin1900.obj
 0001:00012020       ?GetStdIndex@Far3Color@@SAHK@Z 0000000180013020 f i ConEmuPlugin1900.obj
 0001:000120f0       ?Color2BgIndex@Far3Color@@SAXKHAEAG@Z 00000001800130f0 f i ConEmuPlugin1900.obj
 0001:000122c0       ?ReloadFarInfoW1900@@YAHXZ 00000001800132c0 f   ConEmuPlugin1900.obj
 0001:00012790       ?ExecuteQuitFarW1900@@YAXXZ 0000000180013790 f   ConEmuPlugin1900.obj
 0001:000127f0       ?CheckBufferEnabledW1900@@YAHXZ 00000001800137f0 f   ConEmuPlugin1900.obj
 0001:000128c0       ?FillUpdateBackgroundW1900@@YAXPEAUPaintBackgroundArg@@@Z 00000001800138c0 f   ConEmuPlugin1900.obj
 0001:00012ee0       ?GetActiveWindowTypeW1900@@YAHXZ 0000000180013ee0 f   ConEmuPlugin1900.obj
 0001:00012fe0       ?GuiMacroDlgW1900@@YAXXZ   0000000180013fe0 f   ConEmuPlugin1900.obj
 0001:000136e0       ?OpenW1900@@YAPEAXPEBX@Z   00000001800146e0 f   ConEmuPlugin1900.obj
 0001:00013870       ?ProcessConsoleInputW1900@@YAHPEAX@Z 0000000180014870 f   ConEmuPlugin1900.obj
 0001:00013890       ?GetPluginInfoW2800@@YAXPEAX@Z 0000000180014890 f   ConEmuPlugin2800.obj
 0001:00013920       ?ProcessDragFromW2800@@YAXXZ 0000000180014920 f   ConEmuPlugin2800.obj
 0001:00014460       ?ProcessDragToW2800@@YAXXZ 0000000180015460 f   ConEmuPlugin2800.obj
 0001:00014a60       ?SetStartupInfoW2800@@YAXPEAX@Z 0000000180015a60 f   ConEmuPlugin2800.obj
 0001:00014c20       ?GetEditorModifiedStateW2800@@YAKXZ 0000000180015c20 f   ConEmuPlugin2800.obj
 0001:00014c90       ?ProcessEditorEventW2800@@YA_JPEAX@Z 0000000180015c90 f   ConEmuPlugin2800.obj
 0001:00014cc0       ?ProcessViewerEventW2800@@YA_JPEAX@Z 0000000180015cc0 f   ConEmuPlugin2800.obj
 0001:00014cf0       ?ProcessDialogEventW2800@@YA_JPEAX@Z 0000000180015cf0 f   ConEmuPlugin2800.obj
 0001:00014d20       ?ProcessSynchroEventW2800@@YA_JPEAX@Z 0000000180015d20 f   ConEmuPlugin2800.obj
 0001:00014d50       ?ProcessEditorInputW2800@@YAHPEBX@Z 0000000180015d50 f   ConEmuPlugin2800.obj
 0001:00014dd0       ?UpdateConEmuTabsW2800@@YA_NH_N0PEAX@Z 0000000180015dd0 f   ConEmuPlugin2800.obj
 0001:000157a0       ?ExitFARW2800@@YAXXZ       00000001800167a0 f   ConEmuPlugin2800.obj
 0001:00015830       ?ShowMessageW2800@@YAHPEB_WH_N@Z 0000000180016830 f   ConEmuPlugin2800.obj
 0001:00015930       ?ShowMessageW2800@@YAHHH@Z 0000000180016930 f   ConEmuPlugin2800.obj
 0001:000159a0       ?GetMsgW2800@@YAPEB_WH@Z   00000001800169a0 f   ConEmuPlugin2800.obj
 0001:000159f0       ?SetWindowW2800@@YAXH@Z    00000001800169f0 f   ConEmuPlugin2800.obj
 0001:00015a60       ?BackgroundMacroError@@YAKPEAX@Z 0000000180016a60 f   ConEmuPlugin2800.obj
 0001:00015ab0       ?PostMacroW2800@@YAXPEB_WPEAU_INPUT_RECORD@@@Z 0000000180016ab0 f   ConEmuPlugin2800.obj
 0001:00016020       ?ShowPluginMenuW2800@@YAHPEAUConEmuPluginMenuItem@@H@Z 0000000180017020 f   ConEmuPlugin2800.obj
 0001:00016350       ?EditOutputW2800@@YAHPEB_WH@Z 0000000180017350 f   ConEmuPlugin2800.obj
 0001:00016470       ?ExecuteSynchroW2800@@YAHXZ 0000000180017470 f   ConEmuPlugin2800.obj
 0001:00016510       ?WaitEndSynchroW2800@@YAXXZ 0000000180017510 f   ConEmuPlugin2800.obj
 0001:00016520       ?StopWaitEndSynchroW2800@@YAXXZ 0000000180017520 f   ConEmuPlugin2800.obj
 0001:00016560       ?IsMacroActiveW2800@@YAHXZ 0000000180017560 f   ConEmuPlugin2800.obj
 0001:000165b0       ?GetMacroAreaW2800@@YAHXZ  00000001800175b0 f   ConEmuPlugin2800.obj
 0001:000165e0       ?RedrawAllW2800@@YAXXZ     00000001800175e0 f   ConEmuPlugin2800.obj
 0001:00016620       ?LoadPluginW2800@@YA_NPEA_W@Z 0000000180017620 f   ConEmuPlugin2800.obj
 0001:00016660       ?RunExternalProgramW2800@@YA_NPEA_W@Z 0000000180017660 f   ConEmuPlugin2800.obj
 0001:000169f0       ?ProcessCommandLineW2800@@YA_NPEA_W@Z 00000001800179f0 f   ConEmuPlugin2800.obj
 0001:00016a50       ?LoadFarColorsW2800@@YAXAEAY0BAA@E@Z 0000000180017a50 f   ConEmuPlugin2800.obj
 0001:00016c80       ?ReloadFarInfoW2800@@YAHXZ 0000000180017c80 f   ConEmuPlugin2800.obj
 0001:00017160       ?ExecuteQuitFarW2800@@YAXXZ 0000000180018160 f   ConEmuPlugin2800.obj
 0001:000171c0       ?CheckBufferEnabledW2800@@YAHXZ 00000001800181c0 f   ConEmuPlugin2800.obj
 0001:00017290       ?FillUpdateBackgroundW2800@@YAXPEAUPaintBackgroundArg@@@Z 0000000180018290 f   ConEmuPlugin2800.obj
 0001:000178b0       ?GetActiveWindowTypeW2800@@YAHXZ 00000001800188b0 f   ConEmuPlugin2800.obj
 0001:000179b0       ?GuiMacroDlgW2800@@YAXXZ   00000001800189b0 f   ConEmuPlugin2800.obj
 0001:000180d0       GetGlobalInfoW             00000001800190d0 f   ConEmuPlugin2800.obj
 0001:000182f0       ?OpenW2800@@YAPEAXPEBX@Z   00000001800192f0 f   ConEmuPlugin2800.obj
 0001:000184a0       ?ProcessConsoleInputW2800@@YA_JPEAX@Z 00000001800194a0 f   ConEmuPlugin2800.obj
 0001:000184c0       GetMinFarVersion           00000001800194c0 f   ConEmuPluginA.obj
 0001:00018530       OpenPlugin                 0000000180019530 f   ConEmuPluginA.obj
 0001:000185c0       ?ProcessDragFromA@@YAXXZ   00000001800195c0 f   ConEmuPluginA.obj
 0001:00018df0       ?ProcessDragToA@@YAXXZ     0000000180019df0 f   ConEmuPluginA.obj
 0001:00019320       SetStartupInfo             000000018001a320 f   ConEmuPluginA.obj
 0001:000195c0       GetPluginInfo              000000018001a5c0 f   ConEmuPluginA.obj
 0001:000196a0       ?GetEditorModifiedStateA@@YAKXZ 000000018001a6a0 f   ConEmuPluginA.obj
 0001:00019700       ProcessEditorInput         000000018001a700 f   ConEmuPluginA.obj
 0001:00019770       ProcessEditorEvent         000000018001a770 f   ConEmuPluginA.obj
 0001:00019820       ProcessViewerEvent         000000018001a820 f   ConEmuPluginA.obj
 0001:000198c0       ?UpdateConEmuTabsA@@YA_NH_N0PEAX@Z 000000018001a8c0 f   ConEmuPluginA.obj
 0001:00019e30       ProcessDialogEvent         000000018001ae30 f   ConEmuPluginA.obj
 0001:00019e40       ExitFAR                    000000018001ae40 f   ConEmuPluginA.obj
 0001:00019ee0       ?ShowMessageA@@YAHPEBDH_N@Z 000000018001aee0 f   ConEmuPluginA.obj
 0001:00019f90       ?ShowMessageA@@YAHHH@Z     000000018001af90 f   ConEmuPluginA.obj
 0001:0001a000       ?SetWindowA@@YAXH@Z        000000018001b000 f   ConEmuPluginA.obj
 0001:0001a080       ?PostMacroA@@YAXPEADPEAU_INPUT_RECORD@@@Z 000000018001b080 f   ConEmuPluginA.obj
 0001:0001a140       ?ShowPluginMenuA@@YAHPEAUConEmuPluginMenuItem@@H@Z 000000018001b140 f   ConEmuPluginA.obj
 0001:0001a430       ?EditOutputA@@YAHPEB_WH@Z  000000018001b430 f   ConEmuPluginA.obj
 0001:0001a5c0       ?GetMsgA@@YAXHAEAY0BAE@_W@Z 000000018001b5c0 f   ConEmuPluginA.obj
 0001:0001a6a0       ?IsMacroActiveA@@YAHXZ     000000018001b6a0 f   ConEmuPluginA.obj
 0001:0001a710       ?RedrawAllA@@YAXXZ         000000018001b710 f   ConEmuPluginA.obj
 0001:0001a750       ?RunExternalProgramA@@YA_NPEAD@Z 000000018001b750 f   ConEmuPluginA.obj
 0001:0001aa80       ?ProcessCommandLineA@@YA_NPEAD@Z 000000018001ba80 f   ConEmuPluginA.obj
 0001:0001aae0       ?LoadFarColorsA@@YAXAEAY0BAA@E@Z 000000018001bae0 f   ConEmuPluginA.obj
 0001:0001abf0       ?ReloadFarInfoA@@YAHXZ     000000018001bbf0 f   ConEmuPluginA.obj
 0001:0001adb0       ?ExecuteQuitFarA@@YAXXZ    000000018001bdb0 f   ConEmuPluginA.obj
 0001:0001ade0       ?FillUpdateBackgroundA@@YAXPEAUPaintBackgroundArg@@@Z 000000018001bde0 f   ConEmuPluginA.obj
 0001:0001b1b0       ?GetActiveWindowTypeA@@YAHXZ 000000018001c1b0 f   ConEmuPluginA.obj
 0001:0001b230       ?GuiMacroDlgA@@YAXXZ       000000018001c230 f   ConEmuPluginA.obj
 0001:0001ba20       ??0CPluginBackground@@QEAA@XZ 000000018001ca20 f   PluginBackground.obj
 0001:0001bcd0       ??1CPluginBackground@@QEAA@XZ 000000018001ccd0 f   PluginBackground.obj
 0001:0001bf80       ?RegisterSubplugin@CPluginBackground@@QEAAHPEAURegisterBackgroundArg@@@Z 000000018001cf80 f   PluginBackground.obj
 0001:0001c3d0       ?ReallocItems@CPluginBackground@@IEAAXH@Z 000000018001d3d0 f   PluginBackground.obj
 0001:0001c470       ?OnMainThreadActivated@CPluginBackground@@QEAAXHH@Z 000000018001d470 f   PluginBackground.obj
 0001:0001c5e0       ?SetForceCheck@CPluginBackground@@QEAAXXZ 000000018001d5e0 f   PluginBackground.obj
 0001:0001c610       ?SetForceUpdate@CPluginBackground@@QEAAX_N@Z 000000018001d610 f   PluginBackground.obj
 0001:0001c650       ?SetForceThLoad@CPluginBackground@@QEAAXXZ 000000018001d650 f   PluginBackground.obj
 0001:0001c690       ?IsParmChanged@CPluginBackground@@IEAA_NPEAUPaintBackgroundArg@@0@Z 000000018001d690 f   PluginBackground.obj
 0001:0001c9e0       ?CheckPanelFolders@CPluginBackground@@IEAAXH@Z 000000018001d9e0 f   PluginBackground.obj
 0001:0001cb70       ?SetDcPanelRect@CPluginBackground@@IEAAXPEAUtagRECT@@PEAUtag_BkPanelInfo@PaintBackgroundArg@@PEAU4@@Z 000000018001db70 f   PluginBackground.obj
 0001:0001cd10       ?UpdateBackground_Exec@CPluginBackground@@KAXPEAURegisterBackgroundArg@@PEAUPaintBackgroundArg@@@Z 000000018001dd10 f   PluginBackground.obj
 0001:0001cd70       ?UpdateBackground@CPluginBackground@@IEAAXXZ 000000018001dd70 f   PluginBackground.obj
 0001:0001de30       ?LoadThSet@CPluginBackground@@IEAAHH@Z 000000018001ee30 f   PluginBackground.obj
 0001:0001e0a0       ?MonitorBackground@CPluginBackground@@QEAAXXZ 000000018001f0a0 f   PluginBackground.obj
 0001:0001e180       ?GetTo@?$MFileMapping@UPanelViewSetMapping@@@@QEAA_NPEAUPanelViewSetMapping@@H@Z 000000018001f180 f i PluginBackground.obj
 0001:0001e1e0       ?InitName@?$MFileMapping@UPanelViewSetMapping@@@@QEAAPEB_WPEB_WKK@Z 000000018001f1e0 f i PluginBackground.obj
 0001:0001e240       ?CloseMap@?$MFileMapping@UPanelViewSetMapping@@@@QEAAXXZ 000000018001f240 f i PluginBackground.obj
 0001:0001e2d0       ?Open@?$MFileMapping@UPanelViewSetMapping@@@@QEAAPEAUPanelViewSetMapping@@HH@Z 000000018001f2d0 f i PluginBackground.obj
 0001:0001e300       ??0?$MFileMapping@UPanelViewSetMapping@@@@QEAA@XZ 000000018001f300 f i PluginBackground.obj
 0001:0001e370       ??1?$MFileMapping@UPanelViewSetMapping@@@@QEAA@XZ 000000018001f370 f i PluginBackground.obj
 0001:0001e3a0       ?IsValid@?$MFileMapping@UPanelViewSetMapping@@@@QEAA_NXZ 000000018001f3a0 f i PluginBackground.obj
 0001:0001e3d0       ?ClosePtr@?$MFileMapping@UPanelViewSetMapping@@@@QEAAXXZ 000000018001f3d0 f i PluginBackground.obj
 0001:0001e410       ?InternalOpenCreate@?$MFileMapping@UPanelViewSetMapping@@@@IEAAPEAUPanelViewSetMapping@@HHH@Z 000000018001f410 f i PluginBackground.obj
 0001:0001e7f0       ?PlugServerInit@@YAXXZ     000000018001f7f0 f   PluginSrv.obj
 0001:0001e800       ?PlugServerStart@@YA_NXZ   000000018001f800 f   PluginSrv.obj
 0001:0001e930       ?PlugServerStop@@YAX_N@Z   000000018001f930 f   PluginSrv.obj
 0001:0001e980       ?cmd_FarSetChanged@@YAXPEAUFAR_REQ_FARSETCHANGED@@@Z 000000018001f980 f   PluginSrv.obj
 0001:0001e9f0       ?PlugServerCommand@@YAHPEAXPEAUCESERVER_REQ@@AEAPEAU1@AEAK3_J@Z 000000018001f9f0 f   PluginSrv.obj
 0001:0001f1e0       ?PlugServerFree@@YAXPEAUCESERVER_REQ@@_J@Z 00000001800201e0 f   PluginSrv.obj
 0001:0001f200       ?SetOverlapped@?$PipeServer@UCESERVER_REQ@@@@QEAAX_N@Z 0000000180020200 f i PluginSrv.obj
 0001:0001f220       ?SetLoopCommands@?$PipeServer@UCESERVER_REQ@@@@QEAAX_N@Z 0000000180020220 f i PluginSrv.obj
 0001:0001f240       ?SetDummyAnswerSize@?$PipeServer@UCESERVER_REQ@@@@QEAAXH@Z 0000000180020240 f i PluginSrv.obj
 0001:0001f260       ?SetMaxCount@?$PipeServer@UCESERVER_REQ@@@@QEAAXH@Z 0000000180020260 f i PluginSrv.obj
 0001:0001f2b0       ?StartPipeServer@?$PipeServer@UCESERVER_REQ@@@@QEAA_NPEB_W_JPEAU_SECURITY_ATTRIBUTES@@P6AHPEAXPEAUCESERVER_REQ@@AEAPEAU3@AEAK61@ZP6AX41@ZP6AH31@Z99@Z 00000001800202b0 f i PluginSrv.obj
 0001:0001f510       ?StopPipeServer@?$PipeServer@UCESERVER_REQ@@@@QEAAX_N@Z 0000000180020510 f i PluginSrv.obj
 0001:0001fb50       ?BreakConnection@?$PipeServer@UCESERVER_REQ@@@@QEAAXPEAX@Z 0000000180020b50 f i PluginSrv.obj
 0001:0001fb80       ?DumpError@?$PipeServer@UCESERVER_REQ@@@@IEAAXPEAUPipeInst@1@PEB_WH@Z 0000000180020b80 f i PluginSrv.obj
 0001:0001fcb0       ?_Disconnect@?$PipeServer@UCESERVER_REQ@@@@IEAAXPEAUPipeInst@1@_N11@Z 0000000180020cb0 f i PluginSrv.obj
 0001:0001fd60       ?StartPipeInstance@?$PipeServer@UCESERVER_REQ@@@@IEAA_NPEAUPipeInst@1@@Z 0000000180020d60 f i PluginSrv.obj
 0001:0001fec0       ?_PipeServerThread@?$PipeServer@UCESERVER_REQ@@@@KAKPEAX@Z 0000000180020ec0 f i PluginSrv.obj
 0001:0001ff50       ?PipeServerThread@?$PipeServer@UCESERVER_REQ@@@@IEAAKPEAUPipeInst@1@@Z 0000000180020f50 f i PluginSrv.obj
 0001:000204a0       ?PipeServerRead@?$PipeServer@UCESERVER_REQ@@@@IEAAHPEAUPipeInst@1@@Z 00000001800214a0 f i PluginSrv.obj
 0001:00020910       ?PipeServerWrite@?$PipeServer@UCESERVER_REQ@@@@IEAAHPEAUPipeInst@1@PEBXKPEAKH@Z 0000000180021910 f i PluginSrv.obj
 0001:00020b50       ?WaitForClient@?$PipeServer@UCESERVER_REQ@@@@IEAA_NPEAUPipeInst@1@AEAH1@Z 0000000180021b50 f i PluginSrv.obj
 0001:00021160       ?WriteDummyAnswer@?$PipeServer@UCESERVER_REQ@@@@IEAAHPEAUPipeInst@1@@Z 0000000180022160 f i PluginSrv.obj
 0001:00021200       ?WaitOverlapped@?$PipeServer@UCESERVER_REQ@@@@IEAAHPEAUPipeInst@1@PEAK@Z 0000000180022200 f i PluginSrv.obj
 0001:000214f0       ?AllocRequestBuf@PipeInst@?$PipeServer@UCESERVER_REQ@@@@QEAAPEAUCESERVER_REQ@@K@Z 00000001800224f0 f i PluginSrv.obj
 0001:00021590       ??$wcscpy_c@$0BAE@@@YAHAEAY0BAE@_WPEB_W@Z 0000000180022590 f i PluginSrv.obj
 0001:000216f0       ?PackInputRecord@@YAHPEBU_INPUT_RECORD@@PEAUMsgStr@MSG64@@@Z 00000001800226f0 f   Common.obj
 0001:000219a0       ?UnpackInputRecord@@YAHPEBUMsgStr@MSG64@@PEAU_INPUT_RECORD@@@Z 00000001800229a0 f   Common.obj
 0001:00021c90       ?TranslateKeyPress@@YAXGK_WHPEAU_INPUT_RECORD@@1@Z 0000000180022c90 f   Common.obj
 0001:00021e20       ?CommonShutdown@@YAXXZ     0000000180022e20 f   Common.obj
 0001:00021e50       ?GetImageSubsystem@@YA_NPEB_WAEAK11@Z 0000000180022e50 f   Execute.obj
 0001:000222a0       ?GetImageSubsystem@@YA_NAEAK0@Z 00000001800232a0 f   Execute.obj
 0001:00022380       ?GetImageSubsystem@@YA_NU_PROCESS_INFORMATION@@AEAK1@Z 0000000180023380 f   Execute.obj
 0001:00022680       ?GetEnclosingSectionHeader@@YAPEAU_IMAGE_SECTION_HEADER@@KPEAUIMAGE_MAPPING@@@Z 0000000180023680 f   Execute.obj
 0001:00022730       ?GetPtrFromRVA@@YAPEAXKPEAUIMAGE_MAPPING@@@Z 0000000180023730 f   Execute.obj
 0001:000227c0       ?FindImageSubsystem@@YA_NPEB_WAEAK11@Z 00000001800237c0 f   Execute.obj
 0001:000234b0       ?ModuleName@@YAPEB_WPEB_W@Z 00000001800244b0 f   ConEmuCheck.obj
 0001:000235a0       ?ExecuteOpenPipe@@YAPEAXPEB_WAEAY0CAI@_W0KKHPEAX@Z 00000001800245a0 f   ConEmuCheck.obj
 0001:00023970       ?ExecutePrepareCmd@@YAXPEAUCESERVER_REQ@@K_K@Z 0000000180024970 f   ConEmuCheck.obj
 0001:000239d0       ?ExecutePrepareCmd@@YAXPEAUCESERVER_REQ_HDR@@K_K@Z 00000001800249d0 f   ConEmuCheck.obj
 0001:00023aa0       ?ExecuteNewCmd@@YAPEAUCESERVER_REQ@@K_K@Z 0000000180024aa0 f   ConEmuCheck.obj
 0001:00023b10       ?ExecuteNewCmd@@YAHAEAPEAUCESERVER_REQ@@AEAKK_K@Z 0000000180024b10 f   ConEmuCheck.obj
 0001:00023be0       ?LoadSrvMapping@@YAHPEAUHWND__@@AEAUCESERVER_CONSOLE_MAPPING_HDR@@@Z 0000000180024be0 f   ConEmuCheck.obj
 0001:00023d40       ?LoadGuiMapping@@YAHKAEAUConEmuGuiMapping@@@Z 0000000180024d40 f   ConEmuCheck.obj
 0001:00023ea0       ?ExecuteNewCmdOnCreate@@YAPEAUCESERVER_REQ@@PEAUCESERVER_CONSOLE_MAPPING_HDR@@PEAUHWND__@@W4CmdOnCreateType@@PEB_W33PEAK444HHPEAX55@Z 0000000180024ea0 f   ConEmuCheck.obj
 0001:000244c0       ?ExecuteGuiCmd@@YAPEAUCESERVER_REQ@@PEAUHWND__@@PEAU1@0H@Z 00000001800254c0 f   ConEmuCheck.obj
 0001:00024570       ?ExecuteSrvCmd@@YAPEAUCESERVER_REQ@@KPEAU1@PEAUHWND__@@HK@Z 0000000180025570 f   ConEmuCheck.obj
 0001:00024630       ?ExecuteHkCmd@@YAPEAUCESERVER_REQ@@KPEAU1@PEAUHWND__@@H@Z 0000000180025630 f   ConEmuCheck.obj
 0001:000246f0       ?ExecuteCmd@@YAPEAUCESERVER_REQ@@PEB_WPEAU1@KPEAUHWND__@@HK@Z 00000001800256f0 f   ConEmuCheck.obj
 0001:00024a60       ?ExecuteFreeResult@@YAXAEAPEAUCESERVER_REQ@@@Z 0000000180025a60 f   ConEmuCheck.obj
 0001:00024aa0       ?myGetConsoleWindow@@YAPEAUHWND__@@XZ 0000000180025aa0 f   ConEmuCheck.obj
 0001:00024b40       ?GetConEmuHWND@@YAPEAUHWND__@@H@Z 0000000180025b40 f   ConEmuCheck.obj
 0001:00024d50       ?ConEmuCheck@@YAHPEAPEAUHWND__@@@Z 0000000180025d50 f   ConEmuCheck.obj
 0001:00024da0       ?GuiMessageBox@@YAHPEAUHWND__@@PEB_W1H@Z 0000000180025da0 f   ConEmuCheck.obj
 0001:00024fc0       ?InitName@?$MFileMapping@UConEmuGuiMapping@@@@QEAAPEB_WPEB_WKK@Z 0000000180025fc0 f i ConEmuCheck.obj
 0001:00025020       ?CloseMap@?$MFileMapping@UConEmuGuiMapping@@@@QEAAXXZ 0000000180026020 f i ConEmuCheck.obj
 0001:000250b0       ?Open@?$MFileMapping@UConEmuGuiMapping@@@@QEAAPEAUConEmuGuiMapping@@HH@Z 00000001800260b0 f i ConEmuCheck.obj
 0001:000250e0       ??0?$MFileMapping@UConEmuGuiMapping@@@@QEAA@XZ 00000001800260e0 f i ConEmuCheck.obj
 0001:00025150       ??1?$MFileMapping@UConEmuGuiMapping@@@@QEAA@XZ 0000000180026150 f i ConEmuCheck.obj
 0001:00025180       ?ClosePtr@?$MFileMapping@UConEmuGuiMapping@@@@QEAAXXZ 0000000180026180 f i ConEmuCheck.obj
 0001:000251c0       ?InternalOpenCreate@?$MFileMapping@UConEmuGuiMapping@@@@IEAAPEAUConEmuGuiMapping@@HHH@Z 00000001800261c0 f i ConEmuCheck.obj
 0001:00025470       ??$wcscpy_c@$0CA@@@YAHAEAY0CA@_WPEB_W@Z 0000000180026470 f i ConEmuCheck.obj
 0001:000254a0       ?LoadGuiMapping@@YAHPEAUHWND__@@AEAUConEmuGuiMapping@@@Z 00000001800264a0 f   ConEmuCheckEx.obj
 0001:000254f0       ?IsConEmuExeExist@@YAHPEB_WAEAY0BAF@_W@Z 00000001800264f0 f   ConEmuCheckEx.obj
 0001:000255d0       ?FindConEmuBaseDir@@YAHAEAY0BAF@_W0PEAUHINSTANCE__@@@Z 00000001800265d0 f   ConEmuCheckEx.obj
 0001:00025c40       ??$wcscpy_c@$0BAF@@@YAHAEAY0BAF@_WPEB_W@Z 0000000180026c40 f i ConEmuCheckEx.obj
 0001:00025da0       ??$wcscpy_add@$0BAF@@@YAHPEA_WAEAY0BAF@_WPEB_W@Z 0000000180026da0 f i ConEmuCheckEx.obj
 0001:00025e10       ??$wcscat_c@$0BAF@@@YAHAEAY0BAF@_WPEB_W@Z 0000000180026e10 f i ConEmuCheckEx.obj
 0001:00025f50       ?HeapInitialize@@YA_NXZ    0000000180026f50 f   Memory.obj
 0001:00025fa0       ?HeapDeinitialize@@YAXXZ   0000000180026fa0 f   Memory.obj
 0001:00025fd0       ?xf_malloc@@YAPEAX_K@Z     0000000180026fd0 f   Memory.obj
 0001:00026000       ?xf_calloc@@YAPEAX_K0@Z    0000000180027000 f   Memory.obj
 0001:00026040       ?xf_realloc@@YAPEAXPEAX_K@Z 0000000180027040 f   Memory.obj
 0001:00026080       ?xf_free@@YAXPEAX@Z        0000000180027080 f   Memory.obj
 0001:000260c0       ?xf_validate@@YA_NPEAX@Z   00000001800270c0 f   Memory.obj
 0001:00026110       ??2@YAPEAX_K@Z             0000000180027110 f   Memory.obj
 0001:00026140       ??_U@YAPEAX_K@Z            0000000180027140 f   Memory.obj
 0001:00026170       ??3@YAXPEAX@Z              0000000180027170 f   Memory.obj
 0001:00026190       ??_V@YAXPEAX@Z             0000000180027190 f   Memory.obj
 0001:000261b0       ?lstrdup@@YAPEADPEBD@Z     00000001800271b0 f   Memory.obj
 0001:00026230       ?StringCchCopyA@@YAJPEAD_KPEBD@Z 0000000180027230 f i Memory.obj
 0001:000263c0       ?lstrdup@@YAPEA_WPEB_W_K@Z 00000001800273c0 f   Memory.obj
 0001:00026580       ?lstrdupW@@YAPEA_WPEBDI@Z  0000000180027580 f   Memory.obj
 0001:00026620       ?lstrmerge@@YAPEA_WPEB_W000@Z 0000000180027620 f   Memory.obj
 0001:000267f0       ?lstrmerge@@YA_NPEAPEA_WPEB_W11@Z 00000001800277f0 f   Memory.obj
 0001:00026870       ?FindMonitorsWorkspace@@YAHPEAUHMONITOR__@@PEAUHDC__@@PEAUtagRECT@@_J@Z 0000000180027870 f   Monitors.obj
 0001:00026920       ?GetAllMonitorsWorkspace@@YA?AUtagRECT@@XZ 0000000180027920 f   Monitors.obj
 0001:000269b0       ?FindPrimaryMonitor@@YAHPEAUHMONITOR__@@PEAUHDC__@@PEAUtagRECT@@_J@Z 00000001800279b0 f   Monitors.obj
 0001:00026a40       ?GetMonitorInfoSafe@@YA_NPEAUHMONITOR__@@AEAUtagMONITORINFO@@@Z 0000000180027a40 f   Monitors.obj
 0001:00026ab0       ?GetPrimaryMonitorInfo@@YAPEAUHMONITOR__@@PEAUtagMONITORINFO@@@Z 0000000180027ab0 f   Monitors.obj
 0001:00026b70       ?GetNearestMonitorInfo@@YAPEAUHMONITOR__@@PEAUtagMONITORINFO@@PEAU1@PEBUtagRECT@@PEAUHWND__@@@Z 0000000180027b70 f   Monitors.obj
 0001:00026ca0       ?EnumAllMonitors@@YAHPEAUHMONITOR__@@PEAUHDC__@@PEAUtagRECT@@_J@Z 0000000180027ca0 f   Monitors.obj
 0001:00026d50       ?MonitorSortCallback@@YAHAEAU_FindAllMonitorsItem@@0@Z 0000000180027d50 f   Monitors.obj
 0001:00026dd0       ?GetNextMonitorInfo@@YAPEAUHMONITOR__@@PEAUtagMONITORINFO@@PEBUtagRECT@@_N@Z 0000000180027dd0 f   Monitors.obj
 0001:000270c0       ??0_FindAllMonitors@@QEAA@XZ 00000001800280c0 f i Monitors.obj
 0001:000270e0       ??1_FindAllMonitors@@QEAA@XZ 00000001800280e0 f i Monitors.obj
 0001:00027100       ??0?$MArray@U_FindAllMonitorsItem@@@@QEAA@XZ 0000000180028100 f i Monitors.obj
 0001:00027160       ??1?$MArray@U_FindAllMonitorsItem@@@@QEAA@XZ 0000000180028160 f i Monitors.obj
 0001:00027180       ??A?$MArray@U_FindAllMonitorsItem@@@@QEAAAEAU_FindAllMonitorsItem@@_J@Z 0000000180028180 f i Monitors.obj
 0001:000271a0       ?push_back@?$MArray@U_FindAllMonitorsItem@@@@QEAA_JAEBU_FindAllMonitorsItem@@@Z 00000001800281a0 f i Monitors.obj
 0001:00027270       ?size@?$MArray@U_FindAllMonitorsItem@@@@QEBA_JXZ 0000000180028270 f i Monitors.obj
 0001:00027280       ?sort@?$MArray@U_FindAllMonitorsItem@@@@QEAAXP6AHAEAU_FindAllMonitorsItem@@0@Z@Z 0000000180028280 f i Monitors.obj
 0001:000273d0       ?clear@?$MArray@U_FindAllMonitorsItem@@@@QEAAXXZ 00000001800283d0 f i Monitors.obj
 0001:00027420       ?addsize@?$MArray@U_FindAllMonitorsItem@@@@QEAAX_J@Z 0000000180028420 f i Monitors.obj
 0001:00027560       ?NullSecurity@@YAPEAU_SECURITY_ATTRIBUTES@@XZ 0000000180028560 f   MSecurity.obj
 0001:000275c0       ??0MNullDesc@@QEAA@XZ      00000001800285c0 f i MSecurity.obj
 0001:00027640       ?NullSecurity@MNullDesc@@QEAAPEAU_SECURITY_ATTRIBUTES@@XZ 0000000180028640 f i MSecurity.obj
 0001:00027780       ?LoadAdvApi@MNullDesc@@IEAAHXZ 0000000180028780 f i MSecurity.obj
 0001:00027a40       ?UnloadAdvApi@MNullDesc@@IEAAXXZ 0000000180028a40 f i MSecurity.obj
 0001:00027a80       ?LocalSecurity@@YAPEAU_SECURITY_ATTRIBUTES@@XZ 0000000180028a80 f   MSecurity.obj
 0001:00027ae0       ?LocalSecurity@MNullDesc@@QEAAPEAU_SECURITY_ATTRIBUTES@@XZ 0000000180028ae0 f i MSecurity.obj
 0001:00027d90       ?ShutdownSecurity@@YAXXZ   0000000180028d90 f   MSecurity.obj
 0001:00027df0       ??_GMNullDesc@@QEAAPEAXI@Z 0000000180028df0 f i MSecurity.obj
 0001:00027e30       ??1MNullDesc@@QEAA@XZ      0000000180028e30 f i MSecurity.obj
 0001:00027eb0       ?msprintf@@YAPEB_WPEA_W_KPEB_WZZ 0000000180028eb0 f   MStrSafe.obj
 0001:00028860       ?msprintf@@YAPEBDPEAD_KPEBDZZ 0000000180029860 f   MStrSafe.obj
 0001:00028f90       ?lstrcmpni@@YAHPEB_W0H@Z   0000000180029f90 f   MStrSafe.obj
 0001:00029040       ?SetConEmuEnvHWND@@YAXPEB_WPEAUHWND__@@@Z 000000018002a040 f   SetEnvVar.obj
 0001:000290a0       ?SetConEmuEnvVar@@YAXPEAUHWND__@@@Z 000000018002a0a0 f   SetEnvVar.obj
 0001:00029120       ?SetConEmuEnvVarChild@@YAXPEAUHWND__@@0@Z 000000018002a120 f   SetEnvVar.obj
 0001:00029160       ?ShutdownConsole@@YAXXZ    000000018002a160 f   WinConsole.obj
 0001:000291b0       ?SetConsoleInfo@@YAHPEAUHWND__@@PEAU_CONSOLE_INFO@@@Z 000000018002a1b0 f   WinConsole.obj
 0001:000294e0       ?ChangeScreenBufferSize@@YAXAEAU_CONSOLE_SCREEN_BUFFER_INFO@@FFFF@Z 000000018002a4e0 f   WinConsole.obj
 0001:00029640       ?GetConWindowSize@@YAHAEBU_CONSOLE_SCREEN_BUFFER_INFO@@HHKPEAH1PEAK@Z 000000018002a640 f   WinConsole.obj
 0001:000297e0       ?GetConsoleSizeInfo@@YAXPEAU_CONSOLE_INFO@@@Z 000000018002a7e0 f   WinConsole.obj
 0001:000298b0       ?apiGetConsoleScreenBufferInfoEx@@YAHPEAXPEAUMY_CONSOLE_SCREEN_BUFFER_INFOEX@@@Z 000000018002a8b0 f   WinConsole.obj
 0001:00029930       ?apiSetConsoleScreenBufferInfoEx@@YAHPEAXPEAUMY_CONSOLE_SCREEN_BUFFER_INFOEX@@@Z 000000018002a930 f   WinConsole.obj
 0001:000299d0       ?apiGetConsoleFontSize@@YAHPEAXAEAH1AEAY0CA@_W@Z 000000018002a9d0 f   WinConsole.obj
 0001:00029ac0       ?apiSetConsoleFontSize@@YAHPEAXHHPEB_W@Z 000000018002aac0 f   WinConsole.obj
 0001:00029bd0       ?apiFixFontSizeForBufferSize@@YAHPEAXU_COORD@@PEADH@Z 000000018002abd0 f   WinConsole.obj
 0001:0002a2b0       ?SetConsoleFontSizeTo@@YAXPEAUHWND__@@HHPEB_WGG@Z 000000018002b2b0 f   WinConsole.obj
 0001:0002a930       ?EvaluateDefaultFontWidth@@YAHHPEB_W@Z 000000018002b930 f   WinConsole.obj
 0001:0002aab0       ?SetUserFriendlyFont@@YAXPEAUHWND__@@@Z 000000018002bab0 f   WinConsole.obj
 0001:0002b000       ?CorrectConsolePos@@YAXPEAUHWND__@@@Z 000000018002c000 f   WinConsole.obj
 0001:0002b1e0       ?EmergencyShow@@YAXPEAUHWND__@@@Z 000000018002c1e0 f   WinConsole.obj
 0001:0002b2e0       ?getWindowInfo@@YAXPEAUHWND__@@AEAY0EAA@_W@Z 000000018002c2e0 f   WinObjects.obj
 0001:0002b460       ?apiSetForegroundWindow@@YAHPEAUHWND__@@@Z 000000018002c460 f   WinObjects.obj
 0001:0002b490       ?apiShowWindow@@YAHPEAUHWND__@@H@Z 000000018002c490 f   WinObjects.obj
 0001:0002b4c0       ?apiShowWindowAsync@@YAHPEAUHWND__@@H@Z 000000018002c4c0 f   WinObjects.obj
 0001:0002b4f0       ?isWindow@@YAHPEAUHWND__@@@Z 000000018002c4f0 f   WinObjects.obj
 0001:0002b570       ?FileCompare@@YA_NPEB_W0@Z 000000018002c570 f   WinObjects.obj
 0001:0002b860       ?FileExists@@YA_NPEB_WPEAK@Z 000000018002c860 f   WinObjects.obj
 0001:0002ba80       ?FileExistsSearch@@YA_NPEA_W_K@Z 000000018002ca80 f   WinObjects.obj
 0001:0002bd40       ?DirectoryExists@@YA_NPEB_W@Z 000000018002cd40 f   WinObjects.obj
 0001:0002bf00       ?MyCreateDirectory@@YA_NPEA_W@Z 000000018002cf00 f   WinObjects.obj
 0001:0002c050       ?IsFilePath@@YA_NPEB_W@Z   000000018002d050 f   WinObjects.obj
 0001:0002c150       ?IsPathNeedQuot@@YA_NPEB_W@Z 000000018002d150 f   WinObjects.obj
 0001:0002c180       ?GetShortFileName@@YAHPEB_WHPEA_WH@Z 000000018002d180 f   WinObjects.obj
 0001:0002c400       ?GetShortFileNameEx@@YAPEA_WPEB_WH@Z 000000018002d400 f   WinObjects.obj
 0001:0002c920       ?IsUserAdmin@@YA_NXZ       000000018002d920 f   WinObjects.obj
 0001:0002ca80       ?GetLogonSID@@YA_NPEAXPEAPEA_W@Z 000000018002da80 f   WinObjects.obj
 0001:0002cbe0       ?IsWine@@YA_NXZ            000000018002dbe0 f   WinObjects.obj
 0001:0002cd70       ?IsWinPE@@YA_NXZ           000000018002dd70 f   WinObjects.obj
 0001:0002ce20       ?IsDbcs@@YA_NXZ            000000018002de20 f   WinObjects.obj
 0001:0002ce60       ?IsWindows64@@YA_NXZ       000000018002de60 f   WinObjects.obj
 0001:0002cea0       ?IsHwFullScreenAvailable@@YA_NXZ 000000018002dea0 f   WinObjects.obj
 0001:0002cf30       ?IsVsNetHostExe@@YA_NPEB_W@Z 000000018002df30 f   WinObjects.obj
 0001:0002cfd0       ?GetProcessBits@@YAHKPEAX@Z 000000018002dfd0 f   WinObjects.obj
 0001:0002d0f0       ?GetProcessInfo@@YA_NKPEAUtagPROCESSENTRY32W@@@Z 000000018002e0f0 f   WinObjects.obj
 0001:0002d1e0       ?isTerminalMode@@YA_NXZ    000000018002e1e0 f   WinObjects.obj
 0001:0002d530       ?IsModuleValid@@YA_NPEAUHINSTANCE__@@H@Z 000000018002e530 f   WinObjects.obj
 0001:0002d6d0       ?CheckCallbackPtr@@YA_NPEAUHINSTANCE__@@_KPEAP6A_JXZHHH@Z 000000018002e6d0 f   WinObjects.obj
 0001:0002d8c0       ?RemoveOldComSpecC@@YAXXZ  000000018002e8c0 f   WinObjects.obj
 0001:0002da10       ?PointToName@@YAPEB_WPEB_W@Z 000000018002ea10 f   WinObjects.obj
 0001:0002da70       ?PointToName@@YAPEBDPEBD@Z 000000018002ea70 f   WinObjects.obj
 0001:0002dac0       ?PointToExt@@YAPEB_WPEB_W@Z 000000018002eac0 f   WinObjects.obj
 0001:0002db10       ?Unquote@@YAPEB_WPEA_W_N@Z 000000018002eb10 f   WinObjects.obj
 0001:0002dbc0       ?ExpandMacroValues@@YAPEA_WPEB_WPEAPEB_W_K@Z 000000018002ebc0 f   WinObjects.obj
 0001:0002de10       ?ExpandEnvStr@@YAPEA_WPEB_W@Z 000000018002ee10 f   WinObjects.obj
 0001:0002df20       ?GetFullPathNameEx@@YAPEA_WPEB_W@Z 000000018002ef20 f   WinObjects.obj
 0001:0002e020       ??0MConHandle@@QEAA@PEB_W@Z 000000018002f020 f   WinObjects.obj
 0001:0002e0c0       ?LogHandle@MConHandle@@AEAAXIPEAX@Z 000000018002f0c0 f   WinObjects.obj
 0001:0002e150       ??1MConHandle@@QEAA@XZ     000000018002f150 f   WinObjects.obj
 0001:0002e180       ?SetBufferPtr@MConHandle@@QEAAXPEAPEAX@Z 000000018002f180 f   WinObjects.obj
 0001:0002e1a0       ??BMConHandle@@QEAAQEAXXZ  000000018002f1a0 f   WinObjects.obj
 0001:0002e560       ?strrchr@@YAPEADPEADH@Z    000000018002f560 f i WinObjects.obj
 0001:0002e580       ?Close@MConHandle@@QEAAXXZ 000000018002f580 f   WinObjects.obj
 0001:0002e650       ??0MEvent@@QEAA@XZ         000000018002f650 f   WinObjects.obj
 0001:0002e690       ??1MEvent@@QEAA@XZ         000000018002f690 f   WinObjects.obj
 0001:0002e6c0       ?Close@MEvent@@QEAAXXZ     000000018002f6c0 f   WinObjects.obj
 0001:0002e720       ?InitName@MEvent@@QEAAXPEB_WK@Z 000000018002f720 f   WinObjects.obj
 0001:0002e780       ?Open@MEvent@@QEAAPEAXXZ   000000018002f780 f   WinObjects.obj
 0001:0002e820       ?Wait@MEvent@@QEAAKKH@Z    000000018002f820 f   WinObjects.obj
 0001:0002e890       ?GetHandle@MEvent@@QEAAPEAXXZ 000000018002f890 f   WinObjects.obj
 0001:0002e8b0       ??0MSetter@@QEAA@PEAH@Z    000000018002f8b0 f   WinObjects.obj
 0001:0002e900       ??0MSetter@@QEAA@PEA_N@Z   000000018002f900 f   WinObjects.obj
 0001:0002e950       ??0MSetter@@QEAA@PEAKK@Z   000000018002f950 f   WinObjects.obj
 0001:0002e9a0       ??1MSetter@@QEAA@XZ        000000018002f9a0 f   WinObjects.obj
 0001:0002e9c0       ?Unlock@MSetter@@QEAAXXZ   000000018002f9c0 f   WinObjects.obj
 0001:0002ea40       ??0MSection@@QEAA@XZ       000000018002fa40 f   WinObjects.obj
 0001:0002eb10       ??1MSection@@QEAA@XZ       000000018002fb10 f   WinObjects.obj
 0001:0002ebd0       ?Process_Lock@MSection@@IEAAXXZ 000000018002fbd0 f   WinObjects.obj
 0001:0002ebf0       ?Process_Unlock@MSection@@IEAAXXZ 000000018002fbf0 f   WinObjects.obj
 0001:0002ec10       ?ThreadTerminated@MSection@@QEAAXK@Z 000000018002fc10 f   WinObjects.obj
 0001:0002ec70       ?AddRef@MSection@@IEAAXK@Z 000000018002fc70 f   WinObjects.obj
 0001:0002edb0       ?ReleaseRef@MSection@@IEAAHK@Z 000000018002fdb0 f   WinObjects.obj
 0001:0002eed0       ?WaitUnlocked@MSection@@IEAAXKK@Z 000000018002fed0 f   WinObjects.obj
 0001:0002efa0       ?MyEnterCriticalSection@MSection@@IEAA_NK@Z 000000018002ffa0 f   WinObjects.obj
 0001:0002f210       ?Lock@MSection@@IEAAHHK@Z  0000000180030210 f   WinObjects.obj
 0001:0002f3b0       ?Unlock@MSection@@IEAAXH@Z 00000001800303b0 f   WinObjects.obj
 0001:0002f440       ?isLockedExclusive@MSection@@QEAA_NXZ 0000000180030440 f   WinObjects.obj
 0001:0002f4b0       ??0MSectionThread@@QEAA@PEAVMSection@@@Z 00000001800304b0 f   WinObjects.obj
 0001:0002f4f0       ??1MSectionThread@@QEAA@XZ 00000001800304f0 f   WinObjects.obj
 0001:0002f530       ??0MSectionLock@@QEAA@XZ   0000000180030530 f   WinObjects.obj
 0001:0002f560       ??1MSectionLock@@QEAA@XZ   0000000180030560 f   WinObjects.obj
 0001:0002f590       ?Lock@MSectionLock@@QEAAHPEAVMSection@@HK@Z 0000000180030590 f   WinObjects.obj
 0001:0002f660       ?RelockExclusive@MSectionLock@@QEAAHK@Z 0000000180030660 f   WinObjects.obj
 0001:0002f6f0       ?Unlock@MSectionLock@@QEAAXXZ 00000001800306f0 f   WinObjects.obj
 0001:0002f740       ?isLocked@MSectionLock@@QEAAHH@Z 0000000180030740 f   WinObjects.obj
 0001:0002f790       ??0MSectionLockSimple@@QEAA@XZ 0000000180030790 f   WinObjects.obj
 0001:0002f7b0       ??1MSectionLockSimple@@QEAA@XZ 00000001800307b0 f   WinObjects.obj
 0001:0002f7e0       ?Lock@MSectionLockSimple@@QEAAHPEAU_RTL_CRITICAL_SECTION@@K@Z 00000001800307e0 f   WinObjects.obj
 0001:0002f8b0       ?Unlock@MSectionLockSimple@@QEAAXXZ 00000001800308b0 f   WinObjects.obj
 0001:0002f8f0       ?isLocked@MSectionLockSimple@@QEAAHXZ 00000001800308f0 f   WinObjects.obj
 0001:0002f900       ??0MFileLog@@QEAA@PEB_W0K@Z 0000000180030900 f   WinObjects.obj
 0001:0002f9a0       ?InitFileName@MFileLog@@IEAAJPEB_WK@Z 00000001800309a0 f   WinObjects.obj
 0001:0002fa50       ??1MFileLog@@QEAA@XZ       0000000180030a50 f   WinObjects.obj
 0001:0002faa0       ?CloseLogFile@MFileLog@@QEAAXXZ 0000000180030aa0 f   WinObjects.obj
 0001:0002fb40       ?CreateLogFile@MFileLog@@QEAAJPEB_WKK@Z 0000000180030b40 f   WinObjects.obj
 0001:00030370       ?GetLogFileName@MFileLog@@QEAAPEB_WXZ 0000000180031370 f   WinObjects.obj
 0001:000303c0       ?LogString@MFileLog@@QEAAXPEBD_N01I@Z 00000001800313c0 f   WinObjects.obj
 0001:00030580       ?LogString@MFileLog@@QEAAXPEB_W_N01@Z 0000000180031580 f   WinObjects.obj
 0001:000309b0       ?MonitorEnumProc@MFileLog@@KAHPEAUHMONITOR__@@PEAUHDC__@@PEAUtagRECT@@_J@Z 00000001800319b0 f   WinObjects.obj
 0001:00030b60       ?LogStartEnv@MFileLog@@QEAAXPEAUCEStartupEnv@@@Z 0000000180031b60 f   WinObjects.obj
 0001:000319a0       ??0CToolTip@@QEAA@XZ       00000001800329a0 f   WinObjects.obj
 0001:00031a40       ??_ECToolTip@@UEAAPEAXI@Z  0000000180032a40 f i WinObjects.obj
 0001:00031a40       ??_GCToolTip@@UEAAPEAXI@Z  0000000180032a40 f i WinObjects.obj
 0001:00031a80       ??1CToolTip@@UEAA@XZ       0000000180032a80 f   WinObjects.obj
 0001:00031b40       ?ShowTip@CToolTip@@QEAAXPEAUHWND__@@0PEB_WHUtagPOINT@@PEAUHINSTANCE__@@@Z 0000000180032b40 f   WinObjects.obj
 0001:00031ff0       ?HideTip@CToolTip@@QEAAXXZ 0000000180032ff0 f   WinObjects.obj
 0001:00032090       ??0CTimer@@QEAA@XZ         0000000180033090 f   WinObjects.obj
 0001:000320d0       ??1CTimer@@QEAA@XZ         00000001800330d0 f   WinObjects.obj
 0001:000320f0       ?IsStarted@CTimer@@QEAA_NXZ 00000001800330f0 f   WinObjects.obj
 0001:00032100       ?Start@CTimer@@QEAAXI@Z    0000000180033100 f   WinObjects.obj
 0001:00032180       ?Stop@CTimer@@QEAAXXZ      0000000180033180 f   WinObjects.obj
 0001:000321c0       ?Restart@CTimer@@QEAAXI@Z  00000001800331c0 f   WinObjects.obj
 0001:00032200       ?Init@CTimer@@QEAAXPEAUHWND__@@_KI@Z 0000000180033200 f   WinObjects.obj
 0001:00032250       ?MyGetLargestConsoleWindowSize@@YA?AU_COORD@@PEAX@Z 0000000180033250 f   WinObjects.obj
 0001:000322e0       ?DuplicateProcessHandle@@YAPEAXK@Z 00000001800332e0 f   WinObjects.obj
 0001:00032370       ?FindComspec@@YAXPEAUConEmuComspec@@_N@Z 0000000180033370 f   WinObjects.obj
 0001:00032ee0       ?GetEnvVar@@YAPEA_WPEB_WK@Z 0000000180033ee0 f   WinObjects.obj
 0001:00033010       ?UpdateComspec@@YAXPEAUConEmuComspec@@_N@Z 0000000180034010 f   WinObjects.obj
 0001:00033430       ?SetEnvVarExpanded@@YAXPEB_W0@Z 0000000180034430 f   WinObjects.obj
 0001:00033550       ?GetComspecFromEnvVar@@YAPEB_WPEA_WKW4ComSpecBits@@@Z 0000000180034550 f   WinObjects.obj
 0001:000337a0       ?GetComspec@@YAPEA_WPEBUConEmuComspec@@@Z 00000001800347a0 f   WinObjects.obj
 0001:00033a60       ?IsExportEnvVarAllowed@@YA_NPEB_W@Z 0000000180034a60 f   WinObjects.obj
 0001:00033ae0       ?ApplyExportEnvVar@@YAXPEB_W@Z 0000000180034ae0 f   WinObjects.obj
 0001:00033b80       ?CopyToClipboard@@YA_NPEB_W@Z 0000000180034b80 f   WinObjects.obj
 0001:00033c60       ??$wcscpy_c@$0EAA@@@YAHAEAY0EAA@_WPEB_W@Z 0000000180034c60 f i WinObjects.obj
 0001:00033c90       ??$wcscpy_c@$0BAA@@@YAHAEAY0BAA@_WPEB_W@Z 0000000180034c90 f i WinObjects.obj
 0001:00033cc0       ??$wcscpy_c@$0EBA@@@YAHAEAY0EBA@_WPEB_W@Z 0000000180034cc0 f i WinObjects.obj
 0001:00033cf0       GetProcAddress             0000000180034cf0 f   kernel32:KERNEL32.dll
 0001:00033cf6       GetCurrentProcessId        0000000180034cf6 f   kernel32:KERNEL32.dll
 0001:00033cfc       GetLastError               0000000180034cfc f   kernel32:KERNEL32.dll
 0001:00033d02       LoadLibraryW               0000000180034d02 f   kernel32:KERNEL32.dll
 0001:00033d08       GetModuleHandleW           0000000180034d08 f   kernel32:KERNEL32.dll
 0001:00033d0e       IsDebuggerPresent          0000000180034d0e f   kernel32:KERNEL32.dll
 0001:00033d14       SetEvent                   0000000180034d14 f   kernel32:KERNEL32.dll
 0001:00033d1a       lstrcpyW                   0000000180034d1a f   kernel32:KERNEL32.dll
 0001:00033d20       lstrlenW                   0000000180034d20 f   kernel32:KERNEL32.dll
 0001:00033d26       SetEnvironmentVariableW    0000000180034d26 f   kernel32:KERNEL32.dll
 0001:00033d2c       IsBadStringPtrW            0000000180034d2c f   kernel32:KERNEL32.dll
 0001:00033d32       GetNumberOfConsoleInputEvents 0000000180034d32 f   kernel32:KERNEL32.dll
 0001:00033d38       GetStdHandle               0000000180034d38 f   kernel32:KERNEL32.dll
 0001:00033d3e       GetTickCount               0000000180034d3e f   kernel32:KERNEL32.dll
 0001:00033d44       SetLastError               0000000180034d44 f   kernel32:KERNEL32.dll
 0001:00033d4a       GetCurrentThreadId         0000000180034d4a f   kernel32:KERNEL32.dll
 0001:00033d50       ReadConsoleInputW          0000000180034d50 f   kernel32:KERNEL32.dll
 0001:00033d56       PeekConsoleInputW          0000000180034d56 f   kernel32:KERNEL32.dll
 0001:00033d5c       lstrcatW                   0000000180034d5c f   kernel32:KERNEL32.dll
 0001:00033d62       GetModuleFileNameW         0000000180034d62 f   kernel32:KERNEL32.dll
 0001:00033d68       WriteConsoleInputW         0000000180034d68 f   kernel32:KERNEL32.dll
 0001:00033d6e       WaitForSingleObject        0000000180034d6e f   kernel32:KERNEL32.dll
 0001:00033d74       ReleaseSemaphore           0000000180034d74 f   kernel32:KERNEL32.dll
 0001:00033d7a       WaitForMultipleObjects     0000000180034d7a f   kernel32:KERNEL32.dll
 0001:00033d80       ResetEvent                 0000000180034d80 f   kernel32:KERNEL32.dll
 0001:00033d86       GetConsoleScreenBufferInfo 0000000180034d86 f   kernel32:KERNEL32.dll
 0001:00033d8c       SuspendThread              0000000180034d8c f   kernel32:KERNEL32.dll
 0001:00033d92       ResumeThread               0000000180034d92 f   kernel32:KERNEL32.dll
 0001:00033d98       TerminateProcess           0000000180034d98 f   kernel32:KERNEL32.dll
 0001:00033d9e       GetCurrentProcess          0000000180034d9e f   kernel32:KERNEL32.dll
 0001:00033da4       CloseHandle                0000000180034da4 f   kernel32:KERNEL32.dll
 0001:00033daa       Module32NextW              0000000180034daa f   kernel32:KERNEL32.dll
 0001:00033db0       Module32FirstW             0000000180034db0 f   kernel32:KERNEL32.dll
 0001:00033db6       CreateToolhelp32Snapshot   0000000180034db6 f   kernel32:KERNEL32.dll
 0001:00033dbc       GetEnvironmentVariableW    0000000180034dbc f   kernel32:KERNEL32.dll
 0001:00033dc2       CreateThread               0000000180034dc2 f   kernel32:KERNEL32.dll
 0001:00033dc8       CreateSemaphoreW           0000000180034dc8 f   kernel32:KERNEL32.dll
 0001:00033dce       CreateEventW               0000000180034dce f   kernel32:KERNEL32.dll
 0001:00033dd4       OpenFileMappingW           0000000180034dd4 f   kernel32:KERNEL32.dll
 0001:00033dda       VirtualProtect             0000000180034dda f   kernel32:KERNEL32.dll
 0001:00033de0       MapViewOfFile              0000000180034de0 f   kernel32:KERNEL32.dll
 0001:00033de6       CreateFileMappingW         0000000180034de6 f   kernel32:KERNEL32.dll
 0001:00033dec       lstrcmpW                   0000000180034dec f   kernel32:KERNEL32.dll
 0001:00033df2       lstrcpynW                  0000000180034df2 f   kernel32:KERNEL32.dll
 0001:00033df8       lstrcmpiW                  0000000180034df8 f   kernel32:KERNEL32.dll
 0001:00033dfe       UnmapViewOfFile            0000000180034dfe f   kernel32:KERNEL32.dll
 0001:00033e04       TerminateThread            0000000180034e04 f   kernel32:KERNEL32.dll
 0001:00033e0a       SetConsoleTitleW           0000000180034e0a f   kernel32:KERNEL32.dll
 0001:00033e10       GetConsoleTitleW           0000000180034e10 f   kernel32:KERNEL32.dll
 0001:00033e16       WideCharToMultiByte        0000000180034e16 f   kernel32:KERNEL32.dll
 0001:00033e1c       DeleteFileW                0000000180034e1c f   kernel32:KERNEL32.dll
 0001:00033e22       CreateProcessW             0000000180034e22 f   kernel32:KERNEL32.dll
 0001:00033e28       GetExitCodeProcess         0000000180034e28 f   kernel32:KERNEL32.dll
 0001:00033e2e       SetConsoleMode             0000000180034e2e f   kernel32:KERNEL32.dll
 0001:00033e34       GetConsoleMode             0000000180034e34 f   kernel32:KERNEL32.dll
 0001:00033e3a       GetConsoleCursorInfo       0000000180034e3a f   kernel32:KERNEL32.dll
 0001:00033e40       Thread32Next               0000000180034e40 f   kernel32:KERNEL32.dll
 0001:00033e46       Thread32First              0000000180034e46 f   kernel32:KERNEL32.dll
 0001:00033e4c       ExpandEnvironmentStringsW  0000000180034e4c f   kernel32:KERNEL32.dll
 0001:00033e52       lstrcmpA                   0000000180034e52 f   kernel32:KERNEL32.dll
 0001:00033e58       MultiByteToWideChar        0000000180034e58 f   kernel32:KERNEL32.dll
 0001:00033e5e       lstrlenA                   0000000180034e5e f   kernel32:KERNEL32.dll
 0001:00033e64       lstrcpynA                  0000000180034e64 f   kernel32:KERNEL32.dll
 0001:00033e6a       GetCurrentDirectoryW       0000000180034e6a f   kernel32:KERNEL32.dll
 0001:00033e70       lstrcpyA                   0000000180034e70 f   kernel32:KERNEL32.dll
 0001:00033e76       DisconnectNamedPipe        0000000180034e76 f   kernel32:KERNEL32.dll
 0001:00033e7c       SetThreadPriority          0000000180034e7c f   kernel32:KERNEL32.dll
 0001:00033e82       Sleep                      0000000180034e82 f   kernel32:KERNEL32.dll
 0001:00033e88       FlushFileBuffers           0000000180034e88 f   kernel32:KERNEL32.dll
 0001:00033e8e       ReadFile                   0000000180034e8e f   kernel32:KERNEL32.dll
 0001:00033e94       GetOverlappedResult        0000000180034e94 f   kernel32:KERNEL32.dll
 0001:00033e9a       WriteFile                  0000000180034e9a f   kernel32:KERNEL32.dll
 0001:00033ea0       ConnectNamedPipe           0000000180034ea0 f   kernel32:KERNEL32.dll
 0001:00033ea6       CreateNamedPipeW           0000000180034ea6 f   kernel32:KERNEL32.dll
 0001:00033eac       SetFilePointer             0000000180034eac f   kernel32:KERNEL32.dll
 0001:00033eb2       GetFileInformationByHandle 0000000180034eb2 f   kernel32:KERNEL32.dll
 0001:00033eb8       CreateFileW                0000000180034eb8 f   kernel32:KERNEL32.dll
 0001:00033ebe       ReadProcessMemory          0000000180034ebe f   kernel32:KERNEL32.dll
 0001:00033ec4       FreeLibrary                0000000180034ec4 f   kernel32:KERNEL32.dll
 0001:00033eca       VerifyVersionInfoW         0000000180034eca f   kernel32:KERNEL32.dll
 0001:00033ed0       VerSetConditionMask        0000000180034ed0 f   kernel32:KERNEL32.dll
 0001:00033ed6       SearchPathW                0000000180034ed6 f   kernel32:KERNEL32.dll
 0001:00033edc       DebugBreak                 0000000180034edc f   kernel32:KERNEL32.dll
 0001:00033ee2       SetNamedPipeHandleState    0000000180034ee2 f   kernel32:KERNEL32.dll
 0001:00033ee8       WaitNamedPipeW             0000000180034ee8 f   kernel32:KERNEL32.dll
 0001:00033eee       TransactNamedPipe          0000000180034eee f   kernel32:KERNEL32.dll
 0001:00033ef4       GetConsoleWindow           0000000180034ef4 f   kernel32:KERNEL32.dll
 0001:00033efa       HeapCreate                 0000000180034efa f   kernel32:KERNEL32.dll
 0001:00033f00       HeapDestroy                0000000180034f00 f   kernel32:KERNEL32.dll
 0001:00033f06       HeapAlloc                  0000000180034f06 f   kernel32:KERNEL32.dll
 0001:00033f0c       HeapReAlloc                0000000180034f0c f   kernel32:KERNEL32.dll
 0001:00033f12       HeapFree                   0000000180034f12 f   kernel32:KERNEL32.dll
 0001:00033f18       HeapValidate               0000000180034f18 f   kernel32:KERNEL32.dll
 0001:00033f1e       LocalFree                  0000000180034f1e f   kernel32:KERNEL32.dll
 0001:00033f24       LocalAlloc                 0000000180034f24 f   kernel32:KERNEL32.dll
 0001:00033f2a       SetConsoleWindowInfo       0000000180034f2a f   kernel32:KERNEL32.dll
 0001:00033f30       GetConsoleOutputCP         0000000180034f30 f   kernel32:KERNEL32.dll
 0001:00033f36       GetFileSizeEx              0000000180034f36 f   kernel32:KERNEL32.dll
 0001:00033f3c       FindClose                  0000000180034f3c f   kernel32:KERNEL32.dll
 0001:00033f42       FindNextFileW              0000000180034f42 f   kernel32:KERNEL32.dll
 0001:00033f48       FindFirstFileW             0000000180034f48 f   kernel32:KERNEL32.dll
 0001:00033f4e       CreateDirectoryW           0000000180034f4e f   kernel32:KERNEL32.dll
 0001:00033f54       OpenProcess                0000000180034f54 f   kernel32:KERNEL32.dll
 0001:00033f5a       Process32NextW             0000000180034f5a f   kernel32:KERNEL32.dll
 0001:00033f60       Process32FirstW            0000000180034f60 f   kernel32:KERNEL32.dll
 0001:00033f66       IsBadReadPtr               0000000180034f66 f   kernel32:KERNEL32.dll
 0001:00033f6c       VirtualFree                0000000180034f6c f   kernel32:KERNEL32.dll
 0001:00033f72       VirtualAlloc               0000000180034f72 f   kernel32:KERNEL32.dll
 0001:00033f78       GetSystemInfo              0000000180034f78 f   kernel32:KERNEL32.dll
 0001:00033f7e       GetFullPathNameW           0000000180034f7e f   kernel32:KERNEL32.dll
 0001:00033f84       GetModuleFileNameA         0000000180034f84 f   kernel32:KERNEL32.dll
 0001:00033f8a       OpenEventW                 0000000180034f8a f   kernel32:KERNEL32.dll
 0001:00033f90       InitializeCriticalSection  0000000180034f90 f   kernel32:KERNEL32.dll
 0001:00033f96       DeleteCriticalSection      0000000180034f96 f   kernel32:KERNEL32.dll
 0001:00033f9c       EnterCriticalSection       0000000180034f9c f   kernel32:KERNEL32.dll
 0001:00033fa2       LeaveCriticalSection       0000000180034fa2 f   kernel32:KERNEL32.dll
 0001:00033fa8       TryEnterCriticalSection    0000000180034fa8 f   kernel32:KERNEL32.dll
 0001:00033fae       OpenThread                 0000000180034fae f   kernel32:KERNEL32.dll
 0001:00033fb4       GetLocalTime               0000000180034fb4 f   kernel32:KERNEL32.dll
 0001:00033fba       GetVersionExW              0000000180034fba f   kernel32:KERNEL32.dll
 0001:00033fc0       GetLargestConsoleWindowSize 0000000180034fc0 f   kernel32:KERNEL32.dll
 0001:00033fc6       DuplicateHandle            0000000180034fc6 f   kernel32:KERNEL32.dll
 0001:00033fcc       GetWindowsDirectoryW       0000000180034fcc f   kernel32:KERNEL32.dll
 0001:00033fd2       GlobalUnlock               0000000180034fd2 f   kernel32:KERNEL32.dll
 0001:00033fd8       GlobalLock                 0000000180034fd8 f   kernel32:KERNEL32.dll
 0001:00033fde       GlobalAlloc                0000000180034fde f   kernel32:KERNEL32.dll
 0001:00033fe4       MessageBoxW                0000000180034fe4 f   user32:USER32.dll
 0001:00033fea       wsprintfW                  0000000180034fea f   user32:USER32.dll
 0001:00033ff0       IsWindow                   0000000180034ff0 f   user32:USER32.dll
 0001:00033ff6       GetWindowLongPtrW          0000000180034ff6 f   user32:USER32.dll
 0001:00033ffc       GetParent                  0000000180034ffc f   user32:USER32.dll
 0001:00034002       PostMessageW               0000000180035002 f   user32:USER32.dll
 0001:00034008       RegisterWindowMessageW     0000000180035008 f   user32:USER32.dll
 0001:0003400e       GetWindowThreadProcessId   000000018003500e f   user32:USER32.dll
 0001:00034014       IsWindowVisible            0000000180035014 f   user32:USER32.dll
 0001:0003401a       CharUpperBuffW             000000018003501a f   user32:USER32.dll
 0001:00034020       FillRect                   0000000180035020 f   user32:USER32.dll
 0001:00034026       ReleaseDC                  0000000180035026 f   user32:USER32.dll
 0001:0003402c       GetDC                      000000018003502c f   user32:USER32.dll
 0001:00034032       ActivateKeyboardLayout     0000000180035032 f   user32:USER32.dll
 0001:00034038       LoadKeyboardLayoutW        0000000180035038 f   user32:USER32.dll
 0001:0003403e       MapVirtualKeyW             000000018003503e f   user32:USER32.dll
 0001:00034044       VkKeyScanW                 0000000180035044 f   user32:USER32.dll
 0001:0003404a       FindWindowW                000000018003504a f   user32:USER32.dll
 0001:00034050       GetSystemMetrics           0000000180035050 f   user32:USER32.dll
 0001:00034056       IsRectEmpty                0000000180035056 f   user32:USER32.dll
 0001:0003405c       EnumDisplayMonitors        000000018003505c f   user32:USER32.dll
 0001:00034062       GetMonitorInfoW            0000000180035062 f   user32:USER32.dll
 0001:00034068       SystemParametersInfoW      0000000180035068 f   user32:USER32.dll
 0001:0003406e       MonitorFromWindow          000000018003506e f   user32:USER32.dll
 0001:00034074       MonitorFromRect            0000000180035074 f   user32:USER32.dll
 0001:0003407a       SetWindowPos               000000018003507a f   user32:USER32.dll
 0001:00034080       ShowWindow                 0000000180035080 f   user32:USER32.dll
 0001:00034086       SendMessageW               0000000180035086 f   user32:USER32.dll
 0001:0003408c       GetWindowRect              000000018003508c f   user32:USER32.dll
 0001:00034092       EnableWindow               0000000180035092 f   user32:USER32.dll
 0001:00034098       IsWindowEnabled            0000000180035098 f   user32:USER32.dll
 0001:0003409e       SetForegroundWindow        000000018003509e f   user32:USER32.dll
 0001:000340a4       ShowWindowAsync            00000001800350a4 f   user32:USER32.dll
 0001:000340aa       wsprintfA                  00000001800350aa f   user32:USER32.dll
 0001:000340b0       GetCursorPos               00000001800350b0 f   user32:USER32.dll
 0001:000340b6       GetWindowTextW             00000001800350b6 f   user32:USER32.dll
 0001:000340bc       GetClassNameW              00000001800350bc f   user32:USER32.dll
 0001:000340c2       GetForegroundWindow        00000001800350c2 f   user32:USER32.dll
 0001:000340c8       GetKeyboardLayoutList      00000001800350c8 f   user32:USER32.dll
 0001:000340ce       GetKeyboardLayout          00000001800350ce f   user32:USER32.dll
 0001:000340d4       DestroyWindow              00000001800350d4 f   user32:USER32.dll
 0001:000340da       GetClientRect              00000001800350da f   user32:USER32.dll
 0001:000340e0       CreateWindowExW            00000001800350e0 f   user32:USER32.dll
 0001:000340e6       SetTimer                   00000001800350e6 f   user32:USER32.dll
 0001:000340ec       KillTimer                  00000001800350ec f   user32:USER32.dll
 0001:000340f2       CloseClipboard             00000001800350f2 f   user32:USER32.dll
 0001:000340f8       SetClipboardData           00000001800350f8 f   user32:USER32.dll
 0001:000340fe       EmptyClipboard             00000001800350fe f   user32:USER32.dll
 0001:00034104       OpenClipboard              0000000180035104 f   user32:USER32.dll
 0001:0003410a       DeleteEnhMetaFile          000000018003510a f   gdi32:GDI32.dll
 0001:00034110       GetEnhMetaFileBits         0000000180035110 f   gdi32:GDI32.dll
 0001:00034116       CloseEnhMetaFile           0000000180035116 f   gdi32:GDI32.dll
 0001:0003411c       GdiFlush                   000000018003511c f   gdi32:GDI32.dll
 0001:00034122       SelectObject               0000000180035122 f   gdi32:GDI32.dll
 0001:00034128       DeleteDC                   0000000180035128 f   gdi32:GDI32.dll
 0001:0003412e       DeleteObject               000000018003512e f   gdi32:GDI32.dll
 0001:00034134       CreateSolidBrush           0000000180035134 f   gdi32:GDI32.dll
 0001:0003413a       CreateDIBSection           000000018003513a f   gdi32:GDI32.dll
 0001:00034140       CreateCompatibleDC         0000000180035140 f   gdi32:GDI32.dll
 0001:00034146       CreateEnhMetaFileW         0000000180035146 f   gdi32:GDI32.dll
 0001:0003414c       GetDeviceCaps              000000018003514c f   gdi32:GDI32.dll
 0001:00034152       GetTextMetricsW            0000000180035152 f   gdi32:GDI32.dll
 0001:00034158       CreateFontIndirectW        0000000180035158 f   gdi32:GDI32.dll
 0001:0003415e       RegCloseKey                000000018003515e f   advapi32:ADVAPI32.dll
 0001:00034164       RegQueryValueExW           0000000180035164 f   advapi32:ADVAPI32.dll
 0001:0003416a       RegOpenKeyExW              000000018003516a f   advapi32:ADVAPI32.dll
 0001:00034170       RegCreateKeyExW            0000000180035170 f   advapi32:ADVAPI32.dll
 0001:00034176       FreeSid                    0000000180035176 f   advapi32:ADVAPI32.dll
 0001:0003417c       CheckTokenMembership       000000018003517c f   advapi32:ADVAPI32.dll
 0001:00034182       AllocateAndInitializeSid   0000000180035182 f   advapi32:ADVAPI32.dll
 0001:00034188       ConvertSidToStringSidW     0000000180035188 f   advapi32:ADVAPI32.dll
 0001:0003418e       GetTokenInformation        000000018003518e f   advapi32:ADVAPI32.dll
 0001:00034194       OpenProcessToken           0000000180035194 f   advapi32:ADVAPI32.dll
 0001:0003419a       RegEnumKeyExW              000000018003519a f   advapi32:ADVAPI32.dll
 0001:000341a0       SHGetFolderPathW           00000001800351a0 f   shell32:SHELL32.dll
 0001:000341a6       VerQueryValueW             00000001800351a6 f   version:VERSION.dll
 0001:000341ac       GetFileVersionInfoW        00000001800351ac f   version:VERSION.dll
 0001:000341b2       GetFileVersionInfoSizeW    00000001800351b2 f   version:VERSION.dll
 0001:000341d0       memset                     00000001800351d0 f   LIBCMT:memset.obj
 0001:000342d0       memcmp                     00000001800352d0 f   LIBCMT:memcmp.obj
 0001:000343b0       memmove                    00000001800353b0     LIBCMT:memcpy.obj
 0001:000343b0       memcpy                     00000001800353b0 f   LIBCMT:memcpy.obj
 0001:000346e4       wcsrchr                    00000001800356e4 f   LIBCMT:wcsrchr.obj
 0001:00034710       wcschr                     0000000180035710 f   LIBCMT:wcschr.obj
 0001:00034730       wcsstr                     0000000180035730 f   LIBCMT:wcsstr.obj
 0001:00034798       wcsncmp                    0000000180035798 f   LIBCMT:wcsncmp.obj
 0001:000347c8       wcspbrk                    00000001800357c8 f   LIBCMT:wcspbrk.obj
 0001:00034800       strrchr                    0000000180035800 f   LIBCMT:strrchr.obj
 0001:00034840       _alloca_probe              0000000180035840     LIBCMT:chkstk.obj
 0001:00034840       __chkstk                   0000000180035840 f   LIBCMT:chkstk.obj
 0002:00000000       __imp_OpenProcessToken     0000000180036000     advapi32:ADVAPI32.dll
 0002:00000008       __imp_GetTokenInformation  0000000180036008     advapi32:ADVAPI32.dll
 0002:00000010       __imp_ConvertSidToStringSidW 0000000180036010     advapi32:ADVAPI32.dll
 0002:00000018       __imp_AllocateAndInitializeSid 0000000180036018     advapi32:ADVAPI32.dll
 0002:00000020       __imp_CheckTokenMembership 0000000180036020     advapi32:ADVAPI32.dll
 0002:00000028       __imp_FreeSid              0000000180036028     advapi32:ADVAPI32.dll
 0002:00000030       __imp_RegCreateKeyExW      0000000180036030     advapi32:ADVAPI32.dll
 0002:00000038       __imp_RegOpenKeyExW        0000000180036038     advapi32:ADVAPI32.dll
 0002:00000040       __imp_RegQueryValueExW     0000000180036040     advapi32:ADVAPI32.dll
 0002:00000048       __imp_RegCloseKey          0000000180036048     advapi32:ADVAPI32.dll
 0002:00000050       __imp_RegEnumKeyExW        0000000180036050     advapi32:ADVAPI32.dll
 0002:00000058       \177ADVAPI32_NULL_THUNK_DATA 0000000180036058     advapi32:ADVAPI32.dll
 0002:00000060       __imp_GetTextMetricsW      0000000180036060     gdi32:GDI32.dll
 0002:00000068       __imp_GetDeviceCaps        0000000180036068     gdi32:GDI32.dll
 0002:00000070       __imp_CreateEnhMetaFileW   0000000180036070     gdi32:GDI32.dll
 0002:00000078       __imp_CreateCompatibleDC   0000000180036078     gdi32:GDI32.dll
 0002:00000080       __imp_CreateDIBSection     0000000180036080     gdi32:GDI32.dll
 0002:00000088       __imp_CreateSolidBrush     0000000180036088     gdi32:GDI32.dll
 0002:00000090       __imp_DeleteObject         0000000180036090     gdi32:GDI32.dll
 0002:00000098       __imp_DeleteDC             0000000180036098     gdi32:GDI32.dll
 0002:000000a0       __imp_SelectObject         00000001800360a0     gdi32:GDI32.dll
 0002:000000a8       __imp_GdiFlush             00000001800360a8     gdi32:GDI32.dll
 0002:000000b0       __imp_CloseEnhMetaFile     00000001800360b0     gdi32:GDI32.dll
 0002:000000b8       __imp_CreateFontIndirectW  00000001800360b8     gdi32:GDI32.dll
 0002:000000c0       __imp_DeleteEnhMetaFile    00000001800360c0     gdi32:GDI32.dll
 0002:000000c8       __imp_GetEnhMetaFileBits   00000001800360c8     gdi32:GDI32.dll
 0002:000000d0       \177GDI32_NULL_THUNK_DATA  00000001800360d0     gdi32:GDI32.dll
 0002:000000d8       __imp_ResumeThread         00000001800360d8     kernel32:KERNEL32.dll
 0002:000000e0       __imp_TerminateProcess     00000001800360e0     kernel32:KERNEL32.dll
 0002:000000e8       __imp_GetCurrentProcess    00000001800360e8     kernel32:KERNEL32.dll
 0002:000000f0       __imp_CloseHandle          00000001800360f0     kernel32:KERNEL32.dll
 0002:000000f8       __imp_Module32NextW        00000001800360f8     kernel32:KERNEL32.dll
 0002:00000100       __imp_Module32FirstW       0000000180036100     kernel32:KERNEL32.dll
 0002:00000108       __imp_CreateToolhelp32Snapshot 0000000180036108     kernel32:KERNEL32.dll
 0002:00000110       __imp_GetEnvironmentVariableW 0000000180036110     kernel32:KERNEL32.dll
 0002:00000118       __imp_CreateThread         0000000180036118     kernel32:KERNEL32.dll
 0002:00000120       __imp_CreateSemaphoreW     0000000180036120     kernel32:KERNEL32.dll
 0002:00000128       __imp_CreateEventW         0000000180036128     kernel32:KERNEL32.dll
 0002:00000130       __imp_OpenFileMappingW     0000000180036130     kernel32:KERNEL32.dll
 0002:00000138       __imp_VirtualProtect       0000000180036138     kernel32:KERNEL32.dll
 0002:00000140       __imp_MapViewOfFile        0000000180036140     kernel32:KERNEL32.dll
 0002:00000148       __imp_CreateFileMappingW   0000000180036148     kernel32:KERNEL32.dll
 0002:00000150       __imp_lstrcmpW             0000000180036150     kernel32:KERNEL32.dll
 0002:00000158       __imp_lstrcpynW            0000000180036158     kernel32:KERNEL32.dll
 0002:00000160       __imp_lstrcmpiW            0000000180036160     kernel32:KERNEL32.dll
 0002:00000168       __imp_UnmapViewOfFile      0000000180036168     kernel32:KERNEL32.dll
 0002:00000170       __imp_TerminateThread      0000000180036170     kernel32:KERNEL32.dll
 0002:00000178       __imp_SetConsoleTitleW     0000000180036178     kernel32:KERNEL32.dll
 0002:00000180       __imp_GetConsoleTitleW     0000000180036180     kernel32:KERNEL32.dll
 0002:00000188       __imp_WideCharToMultiByte  0000000180036188     kernel32:KERNEL32.dll
 0002:00000190       __imp_DeleteFileW          0000000180036190     kernel32:KERNEL32.dll
 0002:00000198       __imp_CreateProcessW       0000000180036198     kernel32:KERNEL32.dll
 0002:000001a0       __imp_GetExitCodeProcess   00000001800361a0     kernel32:KERNEL32.dll
 0002:000001a8       __imp_SetConsoleMode       00000001800361a8     kernel32:KERNEL32.dll
 0002:000001b0       __imp_GetConsoleMode       00000001800361b0     kernel32:KERNEL32.dll
 0002:000001b8       __imp_GetConsoleCursorInfo 00000001800361b8     kernel32:KERNEL32.dll
 0002:000001c0       __imp_Thread32Next         00000001800361c0     kernel32:KERNEL32.dll
 0002:000001c8       __imp_Thread32First        00000001800361c8     kernel32:KERNEL32.dll
 0002:000001d0       __imp_ExpandEnvironmentStringsW 00000001800361d0     kernel32:KERNEL32.dll
 0002:000001d8       __imp_lstrcmpA             00000001800361d8     kernel32:KERNEL32.dll
 0002:000001e0       __imp_MultiByteToWideChar  00000001800361e0     kernel32:KERNEL32.dll
 0002:000001e8       __imp_lstrlenA             00000001800361e8     kernel32:KERNEL32.dll
 0002:000001f0       __imp_lstrcpynA            00000001800361f0     kernel32:KERNEL32.dll
 0002:000001f8       __imp_GetCurrentDirectoryW 00000001800361f8     kernel32:KERNEL32.dll
 0002:00000200       __imp_lstrcpyA             0000000180036200     kernel32:KERNEL32.dll
 0002:00000208       __imp_DisconnectNamedPipe  0000000180036208     kernel32:KERNEL32.dll
 0002:00000210       __imp_SetThreadPriority    0000000180036210     kernel32:KERNEL32.dll
 0002:00000218       __imp_Sleep                0000000180036218     kernel32:KERNEL32.dll
 0002:00000220       __imp_FlushFileBuffers     0000000180036220     kernel32:KERNEL32.dll
 0002:00000228       __imp_ReadFile             0000000180036228     kernel32:KERNEL32.dll
 0002:00000230       __imp_GetOverlappedResult  0000000180036230     kernel32:KERNEL32.dll
 0002:00000238       __imp_WriteFile            0000000180036238     kernel32:KERNEL32.dll
 0002:00000240       __imp_ConnectNamedPipe     0000000180036240     kernel32:KERNEL32.dll
 0002:00000248       __imp_CreateNamedPipeW     0000000180036248     kernel32:KERNEL32.dll
 0002:00000250       __imp_SetFilePointer       0000000180036250     kernel32:KERNEL32.dll
 0002:00000258       __imp_GetFileInformationByHandle 0000000180036258     kernel32:KERNEL32.dll
 0002:00000260       __imp_SuspendThread        0000000180036260     kernel32:KERNEL32.dll
 0002:00000268       __imp_ReadProcessMemory    0000000180036268     kernel32:KERNEL32.dll
 0002:00000270       __imp_FreeLibrary          0000000180036270     kernel32:KERNEL32.dll
 0002:00000278       __imp_VerifyVersionInfoW   0000000180036278     kernel32:KERNEL32.dll
 0002:00000280       __imp_VerSetConditionMask  0000000180036280     kernel32:KERNEL32.dll
 0002:00000288       __imp_SearchPathW          0000000180036288     kernel32:KERNEL32.dll
 0002:00000290       __imp_DebugBreak           0000000180036290     kernel32:KERNEL32.dll
 0002:00000298       __imp_SetNamedPipeHandleState 0000000180036298     kernel32:KERNEL32.dll
 0002:000002a0       __imp_WaitNamedPipeW       00000001800362a0     kernel32:KERNEL32.dll
 0002:000002a8       __imp_TransactNamedPipe    00000001800362a8     kernel32:KERNEL32.dll
 0002:000002b0       __imp_GetConsoleWindow     00000001800362b0     kernel32:KERNEL32.dll
 0002:000002b8       __imp_HeapCreate           00000001800362b8     kernel32:KERNEL32.dll
 0002:000002c0       __imp_HeapDestroy          00000001800362c0     kernel32:KERNEL32.dll
 0002:000002c8       __imp_HeapAlloc            00000001800362c8     kernel32:KERNEL32.dll
 0002:000002d0       __imp_HeapReAlloc          00000001800362d0     kernel32:KERNEL32.dll
 0002:000002d8       __imp_HeapFree             00000001800362d8     kernel32:KERNEL32.dll
 0002:000002e0       __imp_HeapValidate         00000001800362e0     kernel32:KERNEL32.dll
 0002:000002e8       __imp_LocalFree            00000001800362e8     kernel32:KERNEL32.dll
 0002:000002f0       __imp_LocalAlloc           00000001800362f0     kernel32:KERNEL32.dll
 0002:000002f8       __imp_SetConsoleWindowInfo 00000001800362f8     kernel32:KERNEL32.dll
 0002:00000300       __imp_GetConsoleOutputCP   0000000180036300     kernel32:KERNEL32.dll
 0002:00000308       __imp_GetFileSizeEx        0000000180036308     kernel32:KERNEL32.dll
 0002:00000310       __imp_FindClose            0000000180036310     kernel32:KERNEL32.dll
 0002:00000318       __imp_FindNextFileW        0000000180036318     kernel32:KERNEL32.dll
 0002:00000320       __imp_FindFirstFileW       0000000180036320     kernel32:KERNEL32.dll
 0002:00000328       __imp_CreateDirectoryW     0000000180036328     kernel32:KERNEL32.dll
 0002:00000330       __imp_OpenProcess          0000000180036330     kernel32:KERNEL32.dll
 0002:00000338       __imp_Process32NextW       0000000180036338     kernel32:KERNEL32.dll
 0002:00000340       __imp_Process32FirstW      0000000180036340     kernel32:KERNEL32.dll
 0002:00000348       __imp_IsBadReadPtr         0000000180036348     kernel32:KERNEL32.dll
 0002:00000350       __imp_VirtualFree          0000000180036350     kernel32:KERNEL32.dll
 0002:00000358       __imp_VirtualAlloc         0000000180036358     kernel32:KERNEL32.dll
 0002:00000360       __imp_GetSystemInfo        0000000180036360     kernel32:KERNEL32.dll
 0002:00000368       __imp_GetFullPathNameW     0000000180036368     kernel32:KERNEL32.dll
 0002:00000370       __imp_GetModuleFileNameA   0000000180036370     kernel32:KERNEL32.dll
 0002:00000378       __imp_OpenEventW           0000000180036378     kernel32:KERNEL32.dll
 0002:00000380       __imp_InitializeCriticalSection 0000000180036380     kernel32:KERNEL32.dll
 0002:00000388       __imp_DeleteCriticalSection 0000000180036388     kernel32:KERNEL32.dll
 0002:00000390       __imp_EnterCriticalSection 0000000180036390     kernel32:KERNEL32.dll
 0002:00000398       __imp_LeaveCriticalSection 0000000180036398     kernel32:KERNEL32.dll
 0002:000003a0       __imp_TryEnterCriticalSection 00000001800363a0     kernel32:KERNEL32.dll
 0002:000003a8       __imp_OpenThread           00000001800363a8     kernel32:KERNEL32.dll
 0002:000003b0       __imp_GetLocalTime         00000001800363b0     kernel32:KERNEL32.dll
 0002:000003b8       __imp_GetVersionExW        00000001800363b8     kernel32:KERNEL32.dll
 0002:000003c0       __imp_GetLargestConsoleWindowSize 00000001800363c0     kernel32:KERNEL32.dll
 0002:000003c8       __imp_DuplicateHandle      00000001800363c8     kernel32:KERNEL32.dll
 0002:000003d0       __imp_GetWindowsDirectoryW 00000001800363d0     kernel32:KERNEL32.dll
 0002:000003d8       __imp_GlobalUnlock         00000001800363d8     kernel32:KERNEL32.dll
 0002:000003e0       __imp_GlobalLock           00000001800363e0     kernel32:KERNEL32.dll
 0002:000003e8       __imp_GlobalAlloc          00000001800363e8     kernel32:KERNEL32.dll
 0002:000003f0       __imp_GetConsoleScreenBufferInfo 00000001800363f0     kernel32:KERNEL32.dll
 0002:000003f8       __imp_ResetEvent           00000001800363f8     kernel32:KERNEL32.dll
 0002:00000400       __imp_WaitForMultipleObjects 0000000180036400     kernel32:KERNEL32.dll
 0002:00000408       __imp_ReleaseSemaphore     0000000180036408     kernel32:KERNEL32.dll
 0002:00000410       __imp_WaitForSingleObject  0000000180036410     kernel32:KERNEL32.dll
 0002:00000418       __imp_WriteConsoleInputW   0000000180036418     kernel32:KERNEL32.dll
 0002:00000420       __imp_GetModuleFileNameW   0000000180036420     kernel32:KERNEL32.dll
 0002:00000428       __imp_lstrcatW             0000000180036428     kernel32:KERNEL32.dll
 0002:00000430       __imp_PeekConsoleInputW    0000000180036430     kernel32:KERNEL32.dll
 0002:00000438       __imp_ReadConsoleInputW    0000000180036438     kernel32:KERNEL32.dll
 0002:00000440       __imp_GetCurrentThreadId   0000000180036440     kernel32:KERNEL32.dll
 0002:00000448       __imp_SetLastError         0000000180036448     kernel32:KERNEL32.dll
 0002:00000450       __imp_GetTickCount         0000000180036450     kernel32:KERNEL32.dll
 0002:00000458       __imp_GetStdHandle         0000000180036458     kernel32:KERNEL32.dll
 0002:00000460       __imp_GetNumberOfConsoleInputEvents 0000000180036460     kernel32:KERNEL32.dll
 0002:00000468       __imp_IsBadStringPtrW      0000000180036468     kernel32:KERNEL32.dll
 0002:00000470       __imp_SetEnvironmentVariableW 0000000180036470     kernel32:KERNEL32.dll
 0002:00000478       __imp_lstrlenW             0000000180036478     kernel32:KERNEL32.dll
 0002:00000480       __imp_lstrcpyW             0000000180036480     kernel32:KERNEL32.dll
 0002:00000488       __imp_SetEvent             0000000180036488     kernel32:KERNEL32.dll
 0002:00000490       __imp_IsDebuggerPresent    0000000180036490     kernel32:KERNEL32.dll
 0002:00000498       __imp_GetModuleHandleW     0000000180036498     kernel32:KERNEL32.dll
 0002:000004a0       __imp_LoadLibraryW         00000001800364a0     kernel32:KERNEL32.dll
 0002:000004a8       __imp_GetLastError         00000001800364a8     kernel32:KERNEL32.dll
 0002:000004b0       __imp_GetCurrentProcessId  00000001800364b0     kernel32:KERNEL32.dll
 0002:000004b8       __imp_CreateFileW          00000001800364b8     kernel32:KERNEL32.dll
 0002:000004c0       __imp_GetProcAddress       00000001800364c0     kernel32:KERNEL32.dll
 0002:000004c8       \177KERNEL32_NULL_THUNK_DATA 00000001800364c8     kernel32:KERNEL32.dll
 0002:000004d0       __imp_SHGetFolderPathW     00000001800364d0     shell32:SHELL32.dll
 0002:000004d8       \177SHELL32_NULL_THUNK_DATA 00000001800364d8     shell32:SHELL32.dll
 0002:000004e0       __imp_EnableWindow         00000001800364e0     user32:USER32.dll
 0002:000004e8       __imp_IsWindowEnabled      00000001800364e8     user32:USER32.dll
 0002:000004f0       __imp_SetForegroundWindow  00000001800364f0     user32:USER32.dll
 0002:000004f8       __imp_ShowWindowAsync      00000001800364f8     user32:USER32.dll
 0002:00000500       __imp_wsprintfA            0000000180036500     user32:USER32.dll
 0002:00000508       __imp_GetCursorPos         0000000180036508     user32:USER32.dll
 0002:00000510       __imp_GetWindowTextW       0000000180036510     user32:USER32.dll
 0002:00000518       __imp_GetClassNameW        0000000180036518     user32:USER32.dll
 0002:00000520       __imp_GetForegroundWindow  0000000180036520     user32:USER32.dll
 0002:00000528       __imp_GetKeyboardLayoutList 0000000180036528     user32:USER32.dll
 0002:00000530       __imp_GetKeyboardLayout    0000000180036530     user32:USER32.dll
 0002:00000538       __imp_DestroyWindow        0000000180036538     user32:USER32.dll
 0002:00000540       __imp_GetClientRect        0000000180036540     user32:USER32.dll
 0002:00000548       __imp_CreateWindowExW      0000000180036548     user32:USER32.dll
 0002:00000550       __imp_SetTimer             0000000180036550     user32:USER32.dll
 0002:00000558       __imp_KillTimer            0000000180036558     user32:USER32.dll
 0002:00000560       __imp_CloseClipboard       0000000180036560     user32:USER32.dll
 0002:00000568       __imp_SetClipboardData     0000000180036568     user32:USER32.dll
 0002:00000570       __imp_EmptyClipboard       0000000180036570     user32:USER32.dll
 0002:00000578       __imp_OpenClipboard        0000000180036578     user32:USER32.dll
 0002:00000580       __imp_ShowWindow           0000000180036580     user32:USER32.dll
 0002:00000588       __imp_SetWindowPos         0000000180036588     user32:USER32.dll
 0002:00000590       __imp_GetWindowRect        0000000180036590     user32:USER32.dll
 0002:00000598       __imp_MonitorFromWindow    0000000180036598     user32:USER32.dll
 0002:000005a0       __imp_SystemParametersInfoW 00000001800365a0     user32:USER32.dll
 0002:000005a8       __imp_GetMonitorInfoW      00000001800365a8     user32:USER32.dll
 0002:000005b0       __imp_EnumDisplayMonitors  00000001800365b0     user32:USER32.dll
 0002:000005b8       __imp_IsRectEmpty          00000001800365b8     user32:USER32.dll
 0002:000005c0       __imp_GetSystemMetrics     00000001800365c0     user32:USER32.dll
 0002:000005c8       __imp_FindWindowW          00000001800365c8     user32:USER32.dll
 0002:000005d0       __imp_VkKeyScanW           00000001800365d0     user32:USER32.dll
 0002:000005d8       __imp_MapVirtualKeyW       00000001800365d8     user32:USER32.dll
 0002:000005e0       __imp_LoadKeyboardLayoutW  00000001800365e0     user32:USER32.dll
 0002:000005e8       __imp_ActivateKeyboardLayout 00000001800365e8     user32:USER32.dll
 0002:000005f0       __imp_GetDC                00000001800365f0     user32:USER32.dll
 0002:000005f8       __imp_ReleaseDC            00000001800365f8     user32:USER32.dll
 0002:00000600       __imp_FillRect             0000000180036600     user32:USER32.dll
 0002:00000608       __imp_CharUpperBuffW       0000000180036608     user32:USER32.dll
 0002:00000610       __imp_IsWindowVisible      0000000180036610     user32:USER32.dll
 0002:00000618       __imp_GetWindowThreadProcessId 0000000180036618     user32:USER32.dll
 0002:00000620       __imp_RegisterWindowMessageW 0000000180036620     user32:USER32.dll
 0002:00000628       __imp_PostMessageW         0000000180036628     user32:USER32.dll
 0002:00000630       __imp_GetParent            0000000180036630     user32:USER32.dll
 0002:00000638       __imp_GetWindowLongPtrW    0000000180036638     user32:USER32.dll
 0002:00000640       __imp_IsWindow             0000000180036640     user32:USER32.dll
 0002:00000648       __imp_wsprintfW            0000000180036648     user32:USER32.dll
 0002:00000650       __imp_MessageBoxW          0000000180036650     user32:USER32.dll
 0002:00000658       __imp_MonitorFromRect      0000000180036658     user32:USER32.dll
 0002:00000660       __imp_SendMessageW         0000000180036660     user32:USER32.dll
 0002:00000668       \177USER32_NULL_THUNK_DATA 0000000180036668     user32:USER32.dll
 0002:00000670       __imp_GetFileVersionInfoW  0000000180036670     version:VERSION.dll
 0002:00000678       __imp_GetFileVersionInfoSizeW 0000000180036678     version:VERSION.dll
 0002:00000680       __imp_VerQueryValueW       0000000180036680     version:VERSION.dll
 0002:00000688       \177VERSION_NULL_THUNK_DATA 0000000180036688     version:VERSION.dll
 0002:000006ac       ?HANDLE_BUFFER_SIZE@MConHandle@@0HB 00000001800366ac     ConEmuInjects.obj
 0002:000006b0       ??_C@_0BA@LIPPODFA@ShellExecuteExW?$AA@ 00000001800366b0     ConEmuInjects.obj
 0002:000006c0       ??_C@_1BI@BNFKGMFK@?$AAs?$AAh?$AAe?$AAl?$AAl?$AA3?$AA2?$AA?4?$AAd?$AAl?$AAl?$AA?$AA@ 00000001800366c0     ConEmuInjects.obj
 0002:000006d8       ??_C@_0BO@HCPBIAL@GetNumberOfConsoleInputEvents?$AA@ 00000001800366d8     ConEmuInjects.obj
 0002:000006f8       ??_C@_0BE@OGCEDBDL@WriteConsoleOutputW?$AA@ 00000001800366f8     ConEmuInjects.obj
 0002:00000710       ??_C@_0BE@PKLMIEOM@WriteConsoleOutputA?$AA@ 0000000180036710     ConEmuInjects.obj
 0002:00000728       ??_C@_0BC@IBCKMAJE@ReadConsoleInputW?$AA@ 0000000180036728     ConEmuInjects.obj
 0002:00000740       ??_C@_0BC@JNLCHFED@ReadConsoleInputA?$AA@ 0000000180036740     ConEmuInjects.obj
 0002:00000758       ??_C@_0BC@EEHCEAN@PeekConsoleInputW?$AA@ 0000000180036758     ConEmuInjects.obj
 0002:00000770       ??_C@_0BC@BINPJBNK@PeekConsoleInputA?$AA@ 0000000180036770     ConEmuInjects.obj
 0002:00000788       ??_C@_0N@MOGGHBHN@AllocConsole?$AA@ 0000000180036788     ConEmuInjects.obj
 0002:00000798       ??_C@_0M@LAGCIMKJ@FreeConsole?$AA@ 0000000180036798     ConEmuInjects.obj
 0002:000007a8       ??_C@_1BK@MGMFAEKH@?$AAk?$AAe?$AAr?$AAn?$AAe?$AAl?$AA3?$AA2?$AA?4?$AAd?$AAl?$AAl?$AA?$AA@ 00000001800367a8     ConEmuInjects.obj
 0002:000007c8       ??_C@_0BE@FDMAKOMB@SetHookCallbacksExt?$AA@ 00000001800367c8     ConEmuInjects.obj
 0002:000007e0       ??_C@_1CM@NELFNPDE@?$AAE?$AAx?$AAt?$AAe?$AAn?$AAd?$AAe?$AAd?$AAC?$AAo?$AAn?$AAs?$AAo?$AAl?$AAe?$AA6?$AA4?$AA?4?$AAd?$AAl?$AAl?$AA?$AA@ 00000001800367e0     ConEmuInjects.obj
 0002:00000810       ??_C@_1FG@GKBMDCCM@?$AAC?$AAo?$AAn?$AAE?$AAm?$AAu?$AAH?$AAk?$AA?5?$AAi?$AAs?$AA?5?$AAb?$AAr?$AAo?$AAk?$AAe?$AAn?$AA?0?$AA?5?$AAe?$AAx?$AAp?$AAo?$AAr?$AAt?$AA?5?$AA?$CI?$AA?$CF?$AAs?$AA?$CJ?$AA?5@ 0000000180036810     ConEmuInjects.obj
 0002:00000868       ??_C@_1BO@OGOEDKED@?$AAS?$AAe?$AAt?$AAF?$AAa?$AAr?$AAH?$AAo?$AAo?$AAk?$AAM?$AAo?$AAd?$AAe?$AA?$AA@ 0000000180036868     ConEmuInjects.obj
 0002:00000888       ??_C@_1CO@HHOFMBDD@?$AAS?$AAe?$AAt?$AAL?$AAo?$AAa?$AAd?$AAL?$AAi?$AAb?$AAr?$AAa?$AAr?$AAy?$AAC?$AAa?$AAl?$AAl?$AAb?$AAa?$AAc?$AAk?$AA?$AA@ 0000000180036888     ConEmuInjects.obj
 0002:000008b8       ??_C@_1CC@JNEFFKJH@?$AAS?$AAe?$AAt?$AAH?$AAo?$AAo?$AAk?$AAC?$AAa?$AAl?$AAl?$AAb?$AAa?$AAc?$AAk?$AAs?$AA?$AA@ 00000001800368b8     ConEmuInjects.obj
 0002:000008e0       ??_C@_1CM@DEPCLAGE@?$AAC?$AAo?$AAn?$AAE?$AAm?$AAu?$AA?5?$AAp?$AAl?$AAu?$AAg?$AAi?$AAn?$AA?0?$AA?5?$AAP?$AAI?$AAD?$AA?$DN?$AA?$CF?$AAu?$AA?$AA@ 00000001800368e0     ConEmuInjects.obj
 0002:00000910       ??_C@_0P@JOHNNMGG@SetFarHookMode?$AA@ 0000000180036910     ConEmuInjects.obj
 0002:00000920       ??_C@_0BH@HLKHEPME@SetLoadLibraryCallback?$AA@ 0000000180036920     ConEmuInjects.obj
 0002:00000938       ??_C@_0BB@OPFPFOCM@SetHookCallbacks?$AA@ 0000000180036938     ConEmuInjects.obj
 0002:00000950       ??_C@_1BM@LHLFCECN@?$AAC?$AAo?$AAn?$AAE?$AAm?$AAu?$AA?5?$AAp?$AAl?$AAu?$AAg?$AAi?$AAn?$AA?$AA@ 0000000180036950     ConEmuInjects.obj
 0002:00000970       ??_C@_1IM@IDJBHJMA@?$AAC?$AAo?$AAn?$AAE?$AAm?$AAu?$AAH?$AAk?$AA?5?$AAw?$AAa?$AAs?$AA?5?$AAn?$AAo?$AAt?$AA?5?$AAl?$AAo?$AAa?$AAd?$AAe?$AAd?$AA?0?$AA?5?$AAb?$AAu?$AAt?$AA?5?$AAC?$AAo?$AAn@ 0000000180036970     ConEmuInjects.obj
 0002:00000a00       ??_C@_1BO@MLCHEAGG@?$AAC?$AAo?$AAn?$AAE?$AAm?$AAu?$AAH?$AAk?$AA6?$AA4?$AA?4?$AAd?$AAl?$AAl?$AA?$AA@ 0000000180036a00     ConEmuInjects.obj
 0002:00000a20       ??_C@_0BF@NLPJFAHE@ProcessSynchroEventW?$AA@ 0000000180036a20     ConEmuPlugin.obj
 0002:00000a38       ??_C@_0BE@PGEJPOIL@ProcessDialogEventW?$AA@ 0000000180036a38     ConEmuPlugin.obj
 0002:00000a50       ??_C@_0BE@OMPAFBFG@ProcessViewerEventW?$AA@ 0000000180036a50     ConEmuPlugin.obj
 0002:00000a68       ??_C@_0BE@PJBDJPG@ProcessEditorEventW?$AA@ 0000000180036a68     ConEmuPlugin.obj
 0002:00000a80       ??_C@_08BCACMCCB@ExitFARW?$AA@ 0000000180036a80     ConEmuPlugin.obj
 0002:00000a90       ??_C@_1CO@ELKEEMPJ@?$AAC?$AAo?$AAn?$AAE?$AAm?$AAu?$AAF?$AAi?$AAl?$AAe?$AAM?$AAa?$AAp?$AAp?$AAi?$AAn?$AAg?$AA?4?$AA?$CF?$AA0?$AA8?$AAX?$AA?$AA@ 0000000180036a90     ConEmuPlugin.obj
 0002:00000ac0       ??_C@_1CE@PEOBLGJK@?$AAC?$AAo?$AAn?$AAE?$AAm?$AAu?$AAM?$AAa?$AAc?$AAr?$AAo?$AAR?$AAe?$AAs?$AAu?$AAl?$AAt?$AA?$AA@ 0000000180036ac0     ConEmuPlugin.obj
 0002:00000af0       ??_C@_1BBA@LKLGFJB@?$AAi?$AAf?$AA?5?$AAA?$AAr?$AAe?$AAa?$AA?4?$AAS?$AAe?$AAa?$AAr?$AAc?$AAh?$AA?5?$AAt?$AAh?$AAe?$AAn?$AA?5?$AAK?$AAe?$AAy?$AAs?$AA?$CI?$AA?$CC?$AAE?$AAs?$AAc?$AA?$CC?$AA?$CJ?$AA?5@ 0000000180036af0     ConEmuPlugin.obj
 0002:00000c00       ??_C@_1MK@EDFFIGHJ@?$AA$?$AAi?$AAf?$AA?5?$AA?$CI?$AAS?$AAe?$AAa?$AAr?$AAc?$AAh?$AA?$CJ?$AA?5?$AAE?$AAs?$AAc?$AA?5?$AA$?$AAe?$AAn?$AAd?$AA?5?$AA$?$AAi?$AAf?$AA?5?$AA?$CI?$AAS?$AAh?$AAe?$AAl?$AAl@ 0000000180036c00     ConEmuPlugin.obj
 0002:00000cd0       ??_C@_1EK@LJEKIKEG@?$AA4?$AAb?$AA6?$AA7?$AA5?$AAd?$AA8?$AA0?$AA?9?$AA1?$AAd?$AA4?$AAa?$AA?9?$AA4?$AAe?$AAa?$AA9?$AA?9?$AA8?$AA4?$AA3?$AA6?$AA?9?$AAf?$AAd?$AAc?$AA2?$AA3?$AAf?$AA2?$AAf@ 0000000180036cd0     ConEmuPlugin.obj
 0002:00000d20       ??_C@_1NC@MNABBPPB@?$AA$?$AAi?$AAf?$AA?5?$AA?$CI?$AAS?$AAe?$AAa?$AAr?$AAc?$AAh?$AA?$CJ?$AA?5?$AAE?$AAs?$AAc?$AA?5?$AA$?$AAe?$AAn?$AAd?$AA?5?$AA$?$AAi?$AAf?$AA?5?$AA?$CI?$AAS?$AAh?$AAe?$AAl?$AAl@ 0000000180036d20     ConEmuPlugin.obj
 0002:00000df8       ??_C@_1DE@JGMOFHFB@?$AAD?$AAL?$AAL?$AA_?$AAP?$AAR?$AAO?$AAC?$AAE?$AAS?$AAS?$AA_?$AAD?$AAE?$AAT?$AAA?$AAC?$AAH?$AA?5?$AA?9?$AA?5?$AAd?$AAo?$AAn?$AAe?$AA?$AA@ 0000000180036df8     ConEmuPlugin.obj
 0002:00000e30       ??_C@_1IA@EGLJCBKE@?$AAS?$AAy?$AAn?$AAc?$AAh?$AAo?$AA?5?$AAe?$AAv?$AAe?$AAn?$AAt?$AAs?$AA?5?$AAa?$AAr?$AAe?$AA?5?$AAp?$AAe?$AAn?$AAd?$AAi?$AAn?$AAg?$AA?$CB?$AA?6?$AAF?$AAa?$AAr?$AA?5?$AAm@ 0000000180036e30     ConEmuPlugin.obj
 0002:00000eb0       ??_C@_1CG@KPFIDADG@?$AAD?$AAL?$AAL?$AA_?$AAP?$AAR?$AAO?$AAC?$AAE?$AAS?$AAS?$AA_?$AAD?$AAE?$AAT?$AAA?$AAC?$AAH?$AA?$AA@ 0000000180036eb0     ConEmuPlugin.obj
 0002:00000ed8       ??_C@_1CA@GGFPMHLH@?$AA?6?$AAE?$AAr?$AAr?$AAC?$AAo?$AAd?$AAe?$AA?$DN?$AA0?$AAx?$AA?$CF?$AA0?$AA8?$AAX?$AA?$AA@ 0000000180036ed8     ConEmuPlugin.obj
 0002:00000f00       ??_C@_1FG@LNADFPCE@?$AAL?$AAo?$AAa?$AAd?$AAF?$AAa?$AAr?$AAV?$AAe?$AAr?$AAs?$AAi?$AAo?$AAn?$AA?4?$AAG?$AAe?$AAt?$AAM?$AAo?$AAd?$AAu?$AAl?$AAe?$AAF?$AAi?$AAl?$AAe?$AAN?$AAa?$AAm?$AAe@ 0000000180036f00     ConEmuPlugin.obj
 0002:00000f60       ??_C@_1GC@COKOAMPP@?$AAL?$AAo?$AAa?$AAd?$AAF?$AAa?$AAr?$AAV?$AAe?$AAr?$AAs?$AAi?$AAo?$AAn?$AA?4?$AAG?$AAe?$AAt?$AAF?$AAi?$AAl?$AAe?$AAV?$AAe?$AAr?$AAs?$AAi?$AAo?$AAn?$AAI?$AAn?$AAf@ 0000000180036f60     ConEmuPlugin.obj
 0002:00000fd0       ??_C@_1GC@BJIMIHFH@?$AAL?$AAo?$AAa?$AAd?$AAF?$AAa?$AAr?$AAV?$AAe?$AAr?$AAs?$AAi?$AAo?$AAn?$AA?5?$AAf?$AAa?$AAi?$AAl?$AAe?$AAd?$AA?$CB?$AA?5?$AAC?$AAa?$AAn?$AA?8?$AAt?$AA?5?$AAa?$AAl?$AAl@ 0000000180036fd0     ConEmuPlugin.obj
 0002:00001040       ??_C@_1FK@EOBKNMNM@?$AAL?$AAo?$AAa?$AAd?$AAF?$AAa?$AAr?$AAV?$AAe?$AAr?$AAs?$AAi?$AAo?$AAn?$AA?4?$AAG?$AAe?$AAt?$AAF?$AAi?$AAl?$AAe?$AAV?$AAe?$AAr?$AAs?$AAi?$AAo?$AAn?$AAI?$AAn?$AAf@ 0000000180037040     ConEmuPlugin.obj
 0002:000010a0       ??_C@_1FG@LALGGOEO@?$AAL?$AAo?$AAa?$AAd?$AAF?$AAa?$AAr?$AAV?$AAe?$AAr?$AAs?$AAi?$AAo?$AAn?$AA?4?$AAV?$AAe?$AAr?$AAQ?$AAu?$AAe?$AAr?$AAy?$AAV?$AAa?$AAl?$AAu?$AAe?$AA?$CI?$AA?$CC?$AA?2?$AA?$CC@ 00000001800370a0     ConEmuPlugin.obj
 0002:000010f8       ??_C@_13FPGAJAPJ@?$AA?2?$AA?$AA@ 00000001800370f8     ConEmuPlugin.obj
 0002:00001100       ??_C@_19ENJJDEPI@?$AA?5?$AAe?$AAn?$AAd?$AA?$AA@ 0000000180037100     ConEmuPlugin.obj
 0002:00001110       ??_C@_1M@MEBMOBGD@?$AA?5?$AA$?$AAe?$AAn?$AAd?$AA?$AA@ 0000000180037110     ConEmuPlugin.obj
 0002:00001120       ??_C@_1II@GCHACEKC@?$AA?5?$AAi?$AAf?$AA?5?$AAA?$AAr?$AAe?$AAa?$AA?4?$AAE?$AAd?$AAi?$AAt?$AAo?$AAr?$AA?5?$AAt?$AAh?$AAe?$AAn?$AA?5?$AAK?$AAe?$AAy?$AAs?$AA?$CI?$AA?$CC?$AAA?$AAl?$AAt?$AAF?$AA8@ 0000000180037120     ConEmuPlugin.obj
 0002:000011b0       ??_C@_1FK@DKGMLIBA@?$AA?5?$AA$?$AAi?$AAf?$AA?$CI?$AAE?$AAd?$AAi?$AAt?$AAo?$AAr?$AA?$CJ?$AA?5?$AAA?$AAl?$AAt?$AAF?$AA8?$AA?5?$AAp?$AAr?$AAi?$AAn?$AAt?$AA?$CI?$AA?$CC?$AA?$CF?$AAi?$AA?3?$AA?$CF?$AAi?$AA?$CC@ 00000001800371b0     ConEmuPlugin.obj
 0002:00001210       ??_C@_1EM@EOLCNAFJ@?$AA?5?$AA$?$AAi?$AAf?$AA?$CI?$AAE?$AAd?$AAi?$AAt?$AAo?$AAr?$AA?$CJ?$AA?5?$AAA?$AAl?$AAt?$AAF?$AA8?$AA?5?$AA?$CC?$AA?$CF?$AAi?$AA?3?$AA?$CF?$AAi?$AA?$CC?$AA?5?$AAE?$AAn?$AAt?$AAe?$AAr@ 0000000180037210     ConEmuPlugin.obj
 0002:00001260       ??_C@_1CE@GPKBPBMO@?$AA?$CC?$AA?$CJ?$AA?5?$AAK?$AAe?$AAy?$AAs?$AA?$CI?$AA?$CC?$AAE?$AAn?$AAt?$AAe?$AAr?$AA?$CC?$AA?$CJ?$AA?5?$AA?$AA@ 0000000180037260     ConEmuPlugin.obj
 0002:00001288       ??_C@_1BE@BHGKDHBG@?$AA?$CC?$AA?$CJ?$AA?5?$AAE?$AAn?$AAt?$AAe?$AAr?$AA?5?$AA?$AA@ 0000000180037288     ConEmuPlugin.obj
 0002:000012a0       ??_C@_1BC@FCEBDGDP@?$AA?$CC?$AA?5?$AAE?$AAn?$AAt?$AAe?$AAr?$AA?5?$AA?$AA@ 00000001800372a0     ConEmuPlugin.obj
 0002:000012c0       ??_C@_1MC@KDGIGAHL@?$AA?$EA?$AAi?$AAf?$AA?5?$AAA?$AAr?$AAe?$AAa?$AA?4?$AAV?$AAi?$AAe?$AAw?$AAe?$AAr?$AA?5?$AAo?$AAr?$AA?5?$AAA?$AAr?$AAe?$AAa?$AA?4?$AAE?$AAd?$AAi?$AAt?$AAo?$AAr?$AA?5?$AAt@ 00000001800372c0     ConEmuPlugin.obj
 0002:00001390       ??_C@_1HK@DKFBDAKO@?$AA?$EA?$AA$?$AAi?$AAf?$AA?$CI?$AAV?$AAi?$AAe?$AAw?$AAe?$AAr?$AA?5?$AA?$HM?$AA?$HM?$AA?5?$AAE?$AAd?$AAi?$AAt?$AAo?$AAr?$AA?$CJ?$AA?5?$AAF?$AA1?$AA2?$AA?5?$AA0?$AA?5?$AA$?$AAe?$AAn@ 0000000180037390     ConEmuPlugin.obj
 0002:00001410       ??_C@_1GO@JHPFCKCO@?$AA?$EA?$AA$?$AAi?$AAf?$AA?$CI?$AAV?$AAi?$AAe?$AAw?$AAe?$AAr?$AA?5?$AA?$HM?$AA?$HM?$AA?5?$AAE?$AAd?$AAi?$AAt?$AAo?$AAr?$AA?$CJ?$AA?5?$AAF?$AA1?$AA2?$AA?5?$AA0?$AA?5?$AA$?$AAe?$AAn@ 0000000180037410     ConEmuPlugin.obj
 0002:00001480       ??_C@_1CAM@BBLMGMFK@?$AA?$EA?$AA$?$AAI?$AAf?$AA?5?$AA?$CI?$AA?$CB?$AAC?$AAm?$AAd?$AAL?$AAi?$AAn?$AAe?$AA?4?$AAE?$AAm?$AAp?$AAt?$AAy?$AA?$CJ?$AA?5?$AA?$CF?$AAF?$AAl?$AAg?$AA_?$AAC?$AAm?$AAd?$AA?$DN?$AA1@ 0000000180037480     ConEmuPlugin.obj
 0002:00001690       ??_C@_1CCO@OMFPMNEO@?$AA?$EA?$AAi?$AAf?$AA?5?$AAn?$AAo?$AAt?$AA?5?$AAC?$AAm?$AAd?$AAL?$AAi?$AAn?$AAe?$AA?4?$AAE?$AAm?$AAp?$AAt?$AAy?$AA?5?$AAt?$AAh?$AAe?$AAn?$AA?5?$AAF?$AAl?$AAg?$AA_?$AAC@ 0000000180037690     ConEmuPlugin.obj
 0002:000018c0       ??_C@_1CC@DFJIOIPL@?$AAK?$AAe?$AAy?$AAs?$AA?$CI?$AA?8?$AAM?$AAs?$AAL?$AAC?$AAl?$AAi?$AAc?$AAk?$AA?8?$AA?$CJ?$AA?$AA@ 00000001800378c0     ConEmuPlugin.obj
 0002:000018e8       ??_C@_1BC@GNOFNJJG@?$AAM?$AAs?$AAL?$AAC?$AAl?$AAi?$AAc?$AAk?$AA?$AA@ 00000001800378e8     ConEmuPlugin.obj
 0002:00001900       ??_C@_1DO@LEFBPADB@?$AAi?$AAf?$AA?5?$AAA?$AAr?$AAe?$AAa?$AA?4?$AAS?$AAe?$AAa?$AAr?$AAc?$AAh?$AA?5?$AAK?$AAe?$AAy?$AAs?$AA?$CI?$AA?$CC?$AAE?$AAs?$AAc?$AA?$CC?$AA?$CJ?$AA?5?$AAe?$AAn?$AAd?$AA?$AA@ 0000000180037900     ConEmuPlugin.obj
 0002:00001940       ??_C@_1CM@IICFOBPI@?$AA$?$AAi?$AAf?$AA?5?$AA?$CI?$AAS?$AAe?$AAa?$AAr?$AAc?$AAh?$AA?$CJ?$AA?5?$AAE?$AAs?$AAc?$AA?5?$AA$?$AAe?$AAn?$AAd?$AA?$AA@ 0000000180037940     ConEmuPlugin.obj
 0002:00001970       ??_C@_1CG@OILEFJJN@?$AAC?$AAo?$AAn?$AAE?$AAm?$AAu?$AAT?$AAh?$AA?3?$AA?3?$AAS?$AAe?$AAt?$AAt?$AAi?$AAn?$AAg?$AAs?$AA?$AA@ 0000000180037970     ConEmuPlugin.obj
 0002:000019a0       ??_C@_1HO@CHHOFADM@?$AAC?$AAo?$AAn?$AAs?$AAo?$AAl?$AAe?$AA?5?$AAw?$AAa?$AAs?$AA?5?$AAa?$AAb?$AAn?$AAo?$AAr?$AAm?$AAa?$AAl?$AAl?$AAy?$AA?5?$AAt?$AAe?$AAr?$AAm?$AAi?$AAn?$AAt?$AAa?$AAt@ 00000001800379a0     ConEmuPlugin.obj
 0002:00001a20       ??_C@_0P@JNNILPEA@SetStartupInfo?$AA@ 0000000180037a20     ConEmuPlugin.obj
 0002:00001a30       ??_C@_0BA@IDLLFCLM@SetStartupInfoW?$AA@ 0000000180037a30     ConEmuPlugin.obj
 0002:00001a40       ??_C@_0P@LNKHCDND@OnConEmuLoaded?$AA@ 0000000180037a40     ConEmuPlugin.obj
 0002:00001a50       ??_C@_1BA@NIFIBMHP@?$AAF?$AAA?$AAR?$AAU?$AAS?$AAE?$AAR?$AA?$AA@ 0000000180037a50     ConEmuPlugin.obj
 0002:00001a60       ??_C@_1BA@FJJFMPFO@?$AA?2?$AAU?$AAs?$AAe?$AAr?$AAs?$AA?2?$AA?$AA@ 0000000180037a60     ConEmuPlugin.obj
 0002:00001a70       ??_C@_1BI@EKKLBGKP@?$AAS?$AAo?$AAf?$AAt?$AAw?$AAa?$AAr?$AAe?$AA?2?$AA?$CF?$AAs?$AA?$AA@ 0000000180037a70     ConEmuPlugin.obj
 0002:00001a88       ??_C@_17NACPPFBM@?$AAF?$AAA?$AAR?$AA?$AA@ 0000000180037a88     ConEmuPlugin.obj
 0002:00001a90       ??_C@_19HBICLLML@?$AAF?$AAA?$AAR?$AA2?$AA?$AA@ 0000000180037a90     ConEmuPlugin.obj
 0002:00001aa0       ??_C@_1BI@ENONIIIC@?$AAF?$AAa?$AAr?$AA?5?$AAM?$AAa?$AAn?$AAa?$AAg?$AAe?$AAr?$AA?$AA@ 0000000180037aa0     ConEmuPlugin.obj
 0002:00001ab8       ??_C@_0BJ@GFJHAGKD@AllowSetForegroundWindow?$AA@ 0000000180037ab8     ConEmuPlugin.obj
 0002:00001ad8       ??_C@_1BG@OILDLIOJ@?$AAu?$AAs?$AAe?$AAr?$AA3?$AA2?$AA?4?$AAd?$AAl?$AAl?$AA?$AA@ 0000000180037ad8     ConEmuPlugin.obj
 0002:00001af0       ??_C@_1CE@DLFCKCF@?$AAC?$AAo?$AAn?$AAE?$AAm?$AAu?$AAT?$AAa?$AAb?$AAs?$AAC?$AAh?$AAa?$AAn?$AAg?$AAe?$AAd?$AA?$AA@ 0000000180037af0     ConEmuPlugin.obj
 0002:00001b18       ??_C@_1CM@JBFABNEO@?$AAC?$AAo?$AAn?$AAE?$AAm?$AAu?$AAS?$AAh?$AAi?$AAf?$AAt?$AAP?$AAr?$AAe?$AAs?$AAs?$AAe?$AAd?$AA?4?$AA?$CF?$AAu?$AA?$AA@ 0000000180037b18     ConEmuPlugin.obj
 0002:00001b48       ??_C@_1CK@EANOIBDN@?$AAC?$AAo?$AAn?$AAE?$AAm?$AAu?$AAC?$AAt?$AAr?$AAl?$AAP?$AAr?$AAe?$AAs?$AAs?$AAe?$AAd?$AA?4?$AA?$CF?$AAu?$AA?$AA@ 0000000180037b48     ConEmuPlugin.obj
 0002:00001b78       ??_C@_1DE@DBNFJOHM@?$AAC?$AAo?$AAn?$AAs?$AAo?$AAl?$AAe?$AA2?$AA_?$AAc?$AAo?$AAn?$AAs?$AAo?$AAl?$AAe?$AAB?$AAu?$AAf?$AAf?$AAe?$AAr?$AA_?$AA?$CF?$AAd?$AA?$AA@ 0000000180037b78     ConEmuPlugin.obj
 0002:00001bb0       ??_C@_1BI@GILFJGEK@?$AAB?$AAu?$AAt?$AAt?$AAo?$AAn?$AAC?$AAo?$AAl?$AAo?$AAr?$AA?$AA@ 0000000180037bb0     ConEmuPlugin.obj
 0002:00001bc8       ??_C@_1BK@NFAPLMGI@?$AAS?$AAe?$AAp?$AAa?$AAr?$AAa?$AAt?$AAe?$AAT?$AAa?$AAb?$AAs?$AA?$AA@ 0000000180037bc8     ConEmuPlugin.obj
 0002:00001be8       ??_C@_1CG@HOMCPCN@?$AA?2?$AAP?$AAl?$AAu?$AAg?$AAi?$AAn?$AAs?$AA?2?$AAP?$AAa?$AAn?$AAe?$AAl?$AAT?$AAa?$AAb?$AAs?$AA?$AA@ 0000000180037be8     ConEmuPlugin.obj
 0002:00001c10       ??_C@_1CE@BHJIDFIM@?$AAP?$AAl?$AAu?$AAg?$AAi?$AAn?$AAs?$AA?2?$AAP?$AAa?$AAn?$AAe?$AAl?$AAT?$AAa?$AAb?$AAs?$AA?$AA@ 0000000180037c10     ConEmuPlugin.obj
 0002:00001c38       ??_C@_1CO@INAJPHBH@?$AAC?$AAo?$AAn?$AAE?$AAm?$AAu?$AAF?$AAa?$AAr?$AAA?$AAl?$AAi?$AAv?$AAe?$AAE?$AAv?$AAe?$AAn?$AAt?$AA?4?$AA?$CF?$AAu?$AA?$AA@ 0000000180037c38     ConEmuPlugin.obj
 0002:00001c68       ??_C@_1CI@MBMLEGFG@?$AAC?$AAo?$AAn?$AAE?$AAm?$AAu?$AAF?$AAa?$AAr?$AAM?$AAa?$AAp?$AAp?$AAi?$AAn?$AAg?$AA?4?$AA?$CF?$AAu?$AA?$AA@ 0000000180037c68     ConEmuPlugin.obj
 0002:00001c90       ??_C@_19LKKOIHJI@?$AA?4?$AAt?$AAm?$AAp?$AA?$AA@ 0000000180037c90     ConEmuPlugin.obj
 0002:00001ca0       ??_C@_17LCEPOKH@?$AAC?$AAE?$AAM?$AA?$AA@ 0000000180037ca0     ConEmuPlugin.obj
 0002:00001ca8       ??_C@_1CE@PBCFEBMN@?$AAS?$AAt?$AAo?$AAp?$AAT?$AAh?$AAr?$AAe?$AAa?$AAd?$AA?5?$AA?9?$AA?5?$AAd?$AAo?$AAn?$AAe?$AA?$AA@ 0000000180037ca8     ConEmuPlugin.obj
 0002:00001cd0       ??_C@_1BM@JHDMPIJF@?$AA?4?$AA?4?$AA?4?$AAF?$AAi?$AAn?$AAa?$AAl?$AAi?$AAz?$AAi?$AAn?$AAg?$AA?$AA@ 0000000180037cd0     ConEmuPlugin.obj
 0002:00001cf0       ??_C@_1CG@BFNCAMEE@?$AA?4?$AA?4?$AA?4?$AAS?$AAt?$AAo?$AAp?$AAp?$AAi?$AAn?$AAg?$AA?5?$AAs?$AAe?$AAr?$AAv?$AAe?$AAr?$AA?$AA@ 0000000180037cf0     ConEmuPlugin.obj
 0002:00001d18       ??_C@_1BO@LCKDINAJ@?$AA?4?$AA?4?$AA?4?$AAC?$AAl?$AAo?$AAs?$AAi?$AAn?$AAg?$AAT?$AAa?$AAb?$AAs?$AA?$AA@ 0000000180037d18     ConEmuPlugin.obj
 0002:00001d38       ??_C@_1BG@EPEIPMDI@?$AAS?$AAt?$AAo?$AAp?$AAT?$AAh?$AAr?$AAe?$AAa?$AAd?$AA?$AA@ 0000000180037d38     ConEmuPlugin.obj
 0002:00001d50       ??_C@_1CE@JNNPBELN@?$AAE?$AAx?$AAi?$AAt?$AAF?$AAa?$AAr?$AAC?$AAm?$AAn?$AA?5?$AA?9?$AA?5?$AAd?$AAo?$AAn?$AAe?$AA?$AA@ 0000000180037d50     ConEmuPlugin.obj
 0002:00001d78       ??_C@_1BG@KACGKIIO@?$AAE?$AAx?$AAi?$AAt?$AAF?$AAa?$AAr?$AAC?$AAm?$AAn?$AA?$AA@ 0000000180037d78     ConEmuPlugin.obj
 0002:00001d90       ??_C@_1CA@IFHGCKFI@?$AAE?$AAx?$AAi?$AAt?$AAF?$AAA?$AAR?$AAW?$AA?5?$AA?9?$AA?5?$AAd?$AAo?$AAn?$AAe?$AA?$AA@ 0000000180037d90     ConEmuPlugin.obj
 0002:00001db0       ??_C@_1BC@OCOOMPC@?$AAE?$AAx?$AAi?$AAt?$AAF?$AAA?$AAR?$AAW?$AA?$AA@ 0000000180037db0     ConEmuPlugin.obj
 0002:00001dd0       ??_C@_1EA@BFFHMENH@?$AAC?$AAo?$AAn?$AAE?$AAm?$AAu?$AAC?$AA?3?$AA?5?$AAC?$AAh?$AAe?$AAc?$AAk?$AAR?$AAe?$AAs?$AAo?$AAu?$AAr?$AAc?$AAe?$AAs?$AA?5?$AAs?$AAt?$AAa?$AAr?$AAt?$AAe?$AAd?$AA?$AA@ 0000000180037dd0     ConEmuPlugin.obj
 0002:00001e10       ??_C@_1BA@DAHNNHGF@?$AAF?$AAA?$AAR?$AAL?$AAA?$AAN?$AAG?$AA?$AA@ 0000000180037e10     ConEmuPlugin.obj
 0002:00001e20       ??_C@_1CC@IHNECLD@?$AA?$HL?$AAT?$AAe?$AAm?$AAp?$AAo?$AAr?$AAa?$AAr?$AAy?$AA?5?$AAp?$AAa?$AAn?$AAe?$AAl?$AA?$AA@ 0000000180037e20     ConEmuPlugin.obj
 0002:00001e48       ??_C@_19IGFHNPAK@?$AAv?$AAi?$AAe?$AAw?$AA?$AA@ 0000000180037e48     ConEmuPlugin.obj
 0002:00001e58       ??_C@_19LELMJPKF@?$AAe?$AAd?$AAi?$AAt?$AA?$AA@ 0000000180037e58     ConEmuPlugin.obj
 0002:00001e68       ??_C@_1BG@DILNIJHK@?$AA?$DM?$AAM?$AAs?$AAg?$AAI?$AAD?$AA?$DN?$AA?$CF?$AAi?$AA?$DO?$AA?$AA@ 0000000180037e68     ConEmuPlugin.obj
 0002:00001e80       ??_C@_1CO@NDKNFKIO@?$AAC?$AAo?$AAn?$AAE?$AAm?$AAu?$AA?5?$AAp?$AAl?$AAu?$AAg?$AAi?$AAn?$AA?5?$AA?$CI?$AAP?$AAI?$AAD?$AA?$DN?$AA?$CF?$AAu?$AA?$CJ?$AA?$AA@ 0000000180037e80     ConEmuPlugin.obj
 0002:00001eb0       ??_C@_11LOCGONAA@?$AA?$AA@ 0000000180037eb0     ConEmuPlugin.obj
 0002:00001eb8       ??_C@_0BD@DHBGKFD@RequestLocalServer?$AA@ 0000000180037eb8     ConEmuPlugin.obj
 0002:00001ed0       ??_C@_1CI@EIEAGHGL@?$AAC?$AAo?$AAn?$AAE?$AAm?$AAu?$AAS?$AAr?$AAv?$AAS?$AAt?$AAa?$AAr?$AAt?$AAe?$AAd?$AA?4?$AA?$CF?$AAu?$AA?$AA@ 0000000180037ed0     ConEmuPlugin.obj
 0002:00001ef8       ??_C@_1BC@ENBPIJOP@?$AA?5?$AA?1?$AAG?$AAI?$AAD?$AA?$DN?$AA?$CF?$AAi?$AA?$AA@ 0000000180037ef8     ConEmuPlugin.obj
 0002:00001f10       ??_C@_1CK@NAOALPKN@?$AA?$CC?$AA?5?$AA?1?$AAA?$AAT?$AAT?$AAA?$AAC?$AAH?$AA?5?$AA?1?$AAF?$AAA?$AAR?$AAP?$AAI?$AAD?$AA?$DN?$AA?$CF?$AAi?$AA?$AA@ 0000000180037f10     ConEmuPlugin.obj
 0002:00001f40       ??_C@_1BI@OPBAAHCM@?$AAC?$AAo?$AAn?$AAE?$AAm?$AAu?$AAC?$AA?4?$AAe?$AAx?$AAe?$AA?$AA@ 0000000180037f40     ConEmuPlugin.obj
 0002:00001f58       ??_C@_1BM@DIGKKBBA@?$AAC?$AAo?$AAn?$AAE?$AAm?$AAu?$AAC?$AA6?$AA4?$AA?4?$AAe?$AAx?$AAe?$AA?$AA@ 0000000180037f58     ConEmuPlugin.obj
 0002:00001f78       ??_C@_1CA@CIILNAEN@?$AA?2?$AAC?$AAo?$AAn?$AAE?$AAm?$AAu?$AAH?$AAk?$AA6?$AA4?$AA?4?$AAd?$AAl?$AAl?$AA?$AA@ 0000000180037f78     ConEmuPlugin.obj
 0002:00001fa0       ??_C@_1FC@DNELIAOB@?$AA?$CC?$AA?$CF?$AAs?$AA?$CC?$AA?5?$AA?1?$AAD?$AAE?$AAB?$AAU?$AAG?$AAP?$AAI?$AAD?$AA?$DN?$AA?$CF?$AAi?$AA?5?$AA?1?$AAB?$AAW?$AA?$DN?$AA?$CF?$AAi?$AA?5?$AA?1?$AAB?$AAH?$AA?$DN?$AA?$CF?$AAi?$AA?5@ 0000000180037fa0     ConEmuPlugin.obj
 0002:00002000       ??_C@_1HI@LCPDMAIJ@?$AA?$CC?$AA?$CF?$AAs?$AA?$CC?$AA?5?$AA?1?$AAA?$AAT?$AAT?$AAA?$AAC?$AAH?$AA?5?$AA?1?$AAR?$AAO?$AAO?$AAT?$AA?5?$AA?$CC?$AA?$CF?$AAs?$AA?$CC?$AA?5?$AA?1?$AAD?$AAE?$AAB?$AAU?$AAG?$AAP?$AAI@ 0000000180038000     ConEmuPlugin.obj
 0002:00002078       ??_C@_1CI@DIEJPMOK@?$AA?2?$AAC?$AAo?$AAn?$AAE?$AAm?$AAu?$AA?2?$AAC?$AAo?$AAn?$AAE?$AAm?$AAu?$AAC?$AA?4?$AAe?$AAx?$AAe?$AA?$AA@ 0000000180038078     ConEmuPlugin.obj
 0002:000020a0       ??_C@_1BK@PCAIPEAH@?$AA?2?$AAC?$AAo?$AAn?$AAE?$AAm?$AAu?$AAC?$AA?4?$AAe?$AAx?$AAe?$AA?$AA@ 00000001800380a0     ConEmuPlugin.obj
 0002:000020c0       ??_C@_1BM@MGPNCPCE@?$AAC?$AAo?$AAn?$AAE?$AAm?$AAu?$AAB?$AAa?$AAs?$AAe?$AAD?$AAi?$AAr?$AA?$AA@ 00000001800380c0     ConEmuPlugin.obj
 0002:000020e0       ??_C@_0BO@KOCOEJCM@Wow64RevertWow64FsRedirection?$AA@ 00000001800380e0     ConEmuPlugin.obj
 0002:00002100       ??_C@_0BP@OODKCJPP@Wow64DisableWow64FsRedirection?$AA@ 0000000180038100     ConEmuPlugin.obj
 0002:00002120       ??_C@_1BPK@LEDPNENO@?$AAC?$AAo?$AAn?$AAE?$AAm?$AAu?$AA?5?$AAC?$AAo?$AAn?$AAs?$AAo?$AAl?$AAe?$AA?5?$AAi?$AAn?$AAf?$AAo?$AAr?$AAm?$AAa?$AAt?$AAi?$AAo?$AAn?$AA?6?$AAT?$AAe?$AAr?$AAm?$AAi@ 0000000180038120     ConEmuPlugin.obj
 0002:0000231c       ??_C@_15BICKNCBF@?$AAN?$AAo?$AA?$AA@ 000000018003831c     ConEmuPlugin.obj
 0002:00002328       ??_C@_17PBAHFJOA@?$AAY?$AAe?$AAs?$AA?$AA@ 0000000180038328     ConEmuPlugin.obj
 0002:00002330       ??_C@_13IABLFADB@?$AAH?$AA?$AA@ 0000000180038330     ConEmuPlugin.obj
 0002:00002334       ??_C@_13DANNHAJN@?$AAV?$AA?$AA@ 0000000180038334     ConEmuPlugin.obj
 0002:00002340       ??_C@_1FO@BGAPBIGG@?$AAC?$AAa?$AAn?$AA?8?$AAt?$AA?5?$AAm?$AAa?$AAp?$AA?5?$AAc?$AAo?$AAn?$AAs?$AAo?$AAl?$AAe?$AA?5?$AAi?$AAn?$AAf?$AAo?$AA?5?$AA?$CI?$AA?$CF?$AAs?$AA?$CJ?$AA?4?$AA?5?$AAE?$AAr?$AAr@ 0000000180038340     ConEmuPlugin.obj
 0002:000023a0       ??_C@_19EOHDNDII@?$AAR?$AAe?$AAa?$AAd?$AA?$AA@ 00000001800383a0     ConEmuPlugin.obj
 0002:000023b0       ??_C@_1BE@HADLJAO@?$AAR?$AAe?$AAa?$AAd?$AAW?$AAr?$AAi?$AAt?$AAe?$AA?$AA@ 00000001800383b0     ConEmuPlugin.obj
 0002:000023d0       ??_C@_1GM@LGOLGABE@?$AAC?$AAa?$AAn?$AA?8?$AAt?$AA?5?$AA?$CF?$AAs?$AA?5?$AAc?$AAo?$AAn?$AAs?$AAo?$AAl?$AAe?$AA?5?$AAd?$AAa?$AAt?$AAa?$AA?5?$AAf?$AAi?$AAl?$AAe?$AA?5?$AAm?$AAa?$AAp?$AAp?$AAi@ 00000001800383d0     ConEmuPlugin.obj
 0002:00002440       ??_C@_19BDAJEHDN@?$AAo?$AAp?$AAe?$AAn?$AA?$AA@ 0000000180038440     ConEmuPlugin.obj
 0002:00002450       ??_C@_1O@KBENBEFG@?$AAc?$AAr?$AAe?$AAa?$AAt?$AAe?$AA?$AA@ 0000000180038450     ConEmuPlugin.obj
 0002:00002460       ??_C@_1GK@OGACKIKJ@?$AAI?$AAn?$AAt?$AAe?$AAr?$AAn?$AAa?$AAl?$AA?5?$AAe?$AAr?$AAr?$AAo?$AAr?$AA?4?$AA?5?$AAM?$AAa?$AAp?$AAp?$AAi?$AAn?$AAg?$AA?5?$AAf?$AAi?$AAl?$AAe?$AA?5?$AAn?$AAa?$AAm@ 0000000180038460     ConEmuPlugin.obj
 0002:000024d0       ??_C@_1O@PICBDAL@?$AAC?$AAo?$AAn?$AAE?$AAm?$AAu?$AA?$AA@ 00000001800384d0     ConEmuPlugin995.obj
 0002:000024e0       ??_C@_15DDHGOCBH@?$AA?4?$AA?4?$AA?$AA@ 00000001800384e0     ConEmuPlugin995.obj
 0002:000024e8       ??_C@_1CG@PKCNLDOL@?$AAE?$AAx?$AAi?$AAt?$AAF?$AAA?$AAR?$AAW?$AA9?$AA9?$AA5?$AA?5?$AA?9?$AA?5?$AAd?$AAo?$AAn?$AAe?$AA?$AA@ 00000001800384e8     ConEmuPlugin995.obj
 0002:00002510       ??_C@_1BI@IBAPHBGL@?$AAE?$AAx?$AAi?$AAt?$AAF?$AAA?$AAR?$AAW?$AA9?$AA9?$AA5?$AA?$AA@ 0000000180038510     ConEmuPlugin995.obj
 0002:00002528       ??_C@_1BK@NEALEMPH@?$AA?9?$AAn?$AAe?$AAw?$AA_?$AAc?$AAo?$AAn?$AAs?$AAo?$AAl?$AAe?$AA?$AA@ 0000000180038528     ConEmuPlugin995.obj
 0002:00002548       ??_C@_17BJPFHBEJ@?$AAC?$AA?3?$AA?2?$AA?$AA@ 0000000180038548     ConEmuPlugin995.obj
 0002:00002550       ??_C@_1CM@MHCEHIEP@?$AAS?$AAt?$AAa?$AAr?$AAt?$AA?5?$AAc?$AAo?$AAn?$AAs?$AAo?$AAl?$AAe?$AA?5?$AAp?$AAr?$AAo?$AAg?$AAr?$AAa?$AAm?$AA?$AA@ 0000000180038550     ConEmuPlugin995.obj
 0002:00002580       ??_C@_1CK@KEKIDABI@?$AAC?$AAo?$AAn?$AAE?$AAm?$AAu?$AA?4?$AAC?$AAr?$AAe?$AAa?$AAt?$AAe?$AAP?$AAr?$AAo?$AAc?$AAe?$AAs?$AAs?$AA?$AA@ 0000000180038580     ConEmuPlugin995.obj
 0002:000025b0       ??_C@_17MEJHPLBO@?$AAc?$AAm?$AAd?$AA?$AA@ 00000001800385b0     ConEmuPlugin995.obj
 0002:000025b8       ??_C@_19KHBBCLDH@?$AAr?$AAu?$AAn?$AA?3?$AA?$AA@ 00000001800385b8     ConEmuPlugin995.obj
 0002:000025c8       ??_C@_1O@BKFLFFPA@?$AAP?$AAl?$AAu?$AAg?$AAi?$AAn?$AA?$AA@ 00000001800385c8     ConEmuPlugin995.obj
 0002:000025d8       ??_C@_1BO@HNJMHBAE@?$AAC?$AAo?$AAn?$AAE?$AAm?$AAu?$AAG?$AAu?$AAi?$AAM?$AAa?$AAc?$AAr?$AAo?$AA?$AA@ 00000001800385d8     ConEmuPlugin995.obj
 0002:000025f8       ??_C@_1CI@OHGGDAJD@?$AAE?$AAx?$AAi?$AAt?$AAF?$AAA?$AAR?$AAW?$AA1?$AA9?$AA0?$AA0?$AA?5?$AA?9?$AA?5?$AAd?$AAo?$AAn?$AAe?$AA?$AA@ 00000001800385f8     ConEmuPlugin1900.obj
 0002:00002620       ??_C@_1BK@BCDKFLCP@?$AAE?$AAx?$AAi?$AAt?$AAF?$AAA?$AAR?$AAW?$AA1?$AA9?$AA0?$AA0?$AA?$AA@ 0000000180038620     ConEmuPlugin1900.obj
 0002:00002640       ??_C@_1JK@OMGPDMAL@?$AAE?$AAr?$AAr?$AAo?$AAr?$AA?5?$AAi?$AAn?$AA?5?$AAM?$AAa?$AAc?$AAr?$AAo?$AA?4?$AA?5?$AAF?$AAa?$AAr?$AA?5?$AA?$CF?$AAu?$AA?4?$AA?$CF?$AAu?$AA?5?$AAb?$AAu?$AAi?$AAl?$AAd?$AA?5@ 0000000180038640     ConEmuPlugin1900.obj
 0002:000026e0       ??_C@_1NK@PMELBCOJ@?$AAE?$AAr?$AAr?$AAo?$AAr?$AA?5?$AAi?$AAn?$AA?5?$AAM?$AAa?$AAc?$AAr?$AAo?$AA?4?$AA?5?$AAF?$AAa?$AAr?$AA?5?$AA?$CF?$AAu?$AA?4?$AA?$CF?$AAu?$AA?5?$AAb?$AAu?$AAi?$AAl?$AAd?$AA?5@ 00000001800386e0     ConEmuPlugin1900.obj
 0002:000027c0       ??_C@_1BC@OLJIBFPH@?$AA?0?$AA?5?$AAH?$AAi?$AAn?$AAt?$AA?3?$AA?5?$AA?$AA@ 00000001800387c0     ConEmuPlugin1900.obj
 0002:000027d8       ??_C@_19JPEEHMMI@?$AA?5?$AA?7?$AA?$AN?$AA?6?$AA?$AA@ 00000001800387d8     ConEmuPlugin1900.obj
 0002:000027e8       ??_C@_1O@BBPMHPCD@?$AAp?$AAr?$AAi?$AAn?$AAt?$AA?$CI?$AA?$AA@ 00000001800387e8     ConEmuPlugin1900.obj
 0002:000027f8       ??_C@_1M@OKCNCBMD@?$AA$?$AAT?$AAE?$AAX?$AAT?$AA?$AA@ 00000001800387f8     ConEmuPlugin1900.obj
 0002:00002808       ??_C@_1BC@IALIJCAM@?$AAS?$AAo?$AAr?$AAt?$AAM?$AAo?$AAd?$AAe?$AA?$AA@ 0000000180038808     ConEmuPlugin1900.obj
 0002:00002820       ??_C@_1BG@MHMKAABO@?$AAS?$AAt?$AAa?$AAt?$AAu?$AAs?$AAL?$AAi?$AAn?$AAe?$AA?$AA@ 0000000180038820     ConEmuPlugin1900.obj
 0002:00002838       ??_C@_1BK@MBFACEDG@?$AAC?$AAo?$AAl?$AAu?$AAm?$AAn?$AAT?$AAi?$AAt?$AAl?$AAe?$AAs?$AA?$AA@ 0000000180038838     ConEmuPlugin1900.obj
 0002:00002858       ??_C@_1O@PDEOIOBG@?$AAK?$AAe?$AAy?$AAB?$AAa?$AAr?$AA?$AA@ 0000000180038858     ConEmuPlugin1900.obj
 0002:00002868       ??_C@_1BI@EKLHEFDO@?$AAS?$AAh?$AAo?$AAw?$AAM?$AAe?$AAn?$AAu?$AAB?$AAa?$AAr?$AA?$AA@ 0000000180038868     ConEmuPlugin1900.obj
 0002:00002880       ??_C@_1CI@KIFAPNHL@?$AAE?$AAx?$AAi?$AAt?$AAF?$AAA?$AAR?$AAW?$AA2?$AA8?$AA0?$AA0?$AA?5?$AA?9?$AA?5?$AAd?$AAo?$AAn?$AAe?$AA?$AA@ 0000000180038880     ConEmuPlugin2800.obj
 0002:000028a8       ??_C@_1BK@DFKHOALC@?$AAE?$AAx?$AAi?$AAt?$AAF?$AAA?$AAR?$AAW?$AA2?$AA8?$AA0?$AA0?$AA?$AA@ 00000001800388a8     ConEmuPlugin2800.obj
 0002:000028c8       ??_C@_1DE@DJEAMLPH@?$AAC?$AAo?$AAn?$AAE?$AAm?$AAu?$AA?4?$AAM?$AAa?$AAx?$AAi?$AAm?$AAu?$AAs?$AA5?$AA?$EA?$AAg?$AAm?$AAa?$AAi?$AAl?$AA?4?$AAc?$AAo?$AAm?$AA?$AA@ 00000001800388c8     ConEmuPlugin2800.obj
 0002:00002900       ??_C@_1DO@JIOAOHCJ@?$AAC?$AAo?$AAn?$AAE?$AAm?$AAu?$AA?5?$AAs?$AAu?$AAp?$AAp?$AAo?$AAr?$AAt?$AA?5?$AAf?$AAo?$AAr?$AA?5?$AAF?$AAa?$AAr?$AA?5?$AAM?$AAa?$AAn?$AAa?$AAg?$AAe?$AAr?$AA?$AA@ 0000000180038900     ConEmuPlugin2800.obj
 0002:00002940       ??_C@_02DJGKEECL@?4?4?$AA@ 0000000180038940     ConEmuPluginA.obj
 0002:00002944       ??_C@_06HGFNEGAJ@ConEmu?$AA@ 0000000180038944     ConEmuPluginA.obj
 0002:00002950       ??_C@_1BO@LDDOEOAL@?$AAE?$AAx?$AAi?$AAt?$AAF?$AAA?$AAR?$AA?5?$AA?9?$AA?5?$AAd?$AAo?$AAn?$AAe?$AA?$AA@ 0000000180038950     ConEmuPluginA.obj
 0002:00002970       ??_C@_1BA@JOPOJEME@?$AAE?$AAx?$AAi?$AAt?$AAF?$AAA?$AAR?$AA?$AA@ 0000000180038970     ConEmuPluginA.obj
 0002:00002980       ??_C@_0BG@DDEOLMNM@Start?5console?5program?$AA@ 0000000180038980     ConEmuPluginA.obj
 0002:00002998       ??_C@_0BF@BKPKIFFI@ConEmu?4CreateProcess?$AA@ 0000000180038998     ConEmuPluginA.obj
 0002:000029b0       ??_C@_03LGLGIONO@cmd?$AA@  00000001800389b0     ConEmuPluginA.obj
 0002:000029b4       ??_C@_04IBMONDLA@run?3?$AA@ 00000001800389b4     ConEmuPluginA.obj
 0002:000029c0       ??_C@_0P@DFGMHJNG@ConEmuGuiMacro?$AA@ 00000001800389c0     ConEmuPluginA.obj
 0002:000029cf       ??_C@_00CNPNBAHC@?$AA@     00000001800389cf     ConEmuPluginA.obj
 0002:000029d0       ??_C@_1DA@OEIAGFIH@?$AAC?$AAo?$AAn?$AAE?$AAm?$AAu?$AA?$AA?$AAF?$AAa?$AAr?$AA?5?$AAB?$AAa?$AAc?$AAk?$AAg?$AAr?$AAo?$AAu?$AAn?$AAd?$AA?$AA?$AA?$AA?$AA?$AA@ 00000001800389d0     PluginBackground.obj
 0002:00002a00       ??_C@_1DA@BMIFHIMF@?$AAC?$AAo?$AAn?$AAE?$AAm?$AAu?$AAV?$AAi?$AAe?$AAw?$AAS?$AAe?$AAt?$AAM?$AAa?$AAp?$AAp?$AAi?$AAn?$AAg?$AA?4?$AA?$CF?$AAu?$AA?$AA@ 0000000180038a00     PluginBackground.obj
 0002:00002a30       ??_C@_1DC@PFNEMDKA@?$AA?2?$AA?2?$AA?$CF?$AAs?$AA?2?$AAp?$AAi?$AAp?$AAe?$AA?2?$AAC?$AAo?$AAn?$AAE?$AAm?$AAu?$AAP?$AAl?$AAu?$AAg?$AAi?$AAn?$AA?$CF?$AAu?$AA?$AA@ 0000000180038a30     PluginSrv.obj
 0002:00002a64       ??_C@_13JOFGPIOO@?$AA?4?$AA?$AA@ 0000000180038a64     PluginSrv.obj
 0002:00002a68       ??_C@_19HGGOABND@?$AA?$CF?$AA0?$AA8?$AAx?$AA?$AA@ 0000000180038a68     PluginSrv.obj
 0002:00002a80       ??_C@_1FM@LPOPCJG@?$AAS?$AAt?$AAa?$AAr?$AAt?$AAP?$AAi?$AAp?$AAe?$AAS?$AAe?$AAr?$AAv?$AAe?$AAr?$AA?3?$AAa?$AAp?$AAf?$AAn?$AAP?$AAi?$AAp?$AAe?$AAS?$AAe?$AAr?$AAv?$AAe?$AAr?$AAC?$AAo@ 0000000180038a80     PluginSrv.obj
 0002:00002ae0       ??_C@_1FG@DJFPBHJF@?$AAP?$AAi?$AAp?$AAe?$AAS?$AAe?$AAr?$AAv?$AAe?$AAr?$AAE?$AAr?$AAr?$AAo?$AAr?$AA?0?$AA?5?$AAP?$AAI?$AAD?$AA?$DN?$AA?$CF?$AAu?$AA?0?$AA?5?$AAT?$AAI?$AAD?$AA?$DN?$AA?$CF?$AAu?$AA?6@ 0000000180038ae0     PluginSrv.obj
 0002:00002b40       ??_C@_1EA@JFONKNJK@?$AAP?$AAi?$AAp?$AAe?$AAS?$AAe?$AAr?$AAv?$AAe?$AAr?$AAE?$AAr?$AAr?$AAo?$AAr?$AA?0?$AA?5?$AAP?$AAI?$AAD?$AA?$DN?$AA?$CF?$AAu?$AA?0?$AA?5?$AAT?$AAI?$AAD?$AA?$DN?$AA?$CF?$AAu?$AA?$AA@ 0000000180038b40     PluginSrv.obj
 0002:00002b80       ??_C@_1M@KGONCMNM@?$AA?$CF?$AAs?$AA?6?$AA?$CF?$AAs?$AA?$AA@ 0000000180038b80     PluginSrv.obj
 0002:00002b90       ??_C@_1GG@PAGGIEEF@?$AAS?$AAt?$AAa?$AAr?$AAt?$AAP?$AAi?$AAp?$AAe?$AAI?$AAn?$AAs?$AAt?$AAa?$AAn?$AAc?$AAe?$AA?3?$AAC?$AAr?$AAe?$AAa?$AAt?$AAe?$AAT?$AAh?$AAr?$AAe?$AAa?$AAd?$AA?5?$AAf@ 0000000180038b90     PluginSrv.obj
 0002:00002c00       ??_C@_1GC@MCEAIMAO@?$AAS?$AAt?$AAa?$AAr?$AAt?$AAP?$AAi?$AAp?$AAe?$AAI?$AAn?$AAs?$AAt?$AAa?$AAn?$AAc?$AAe?$AA?3?$AAC?$AAr?$AAe?$AAa?$AAt?$AAe?$AAE?$AAv?$AAe?$AAn?$AAt?$AA?5?$AAf?$AAa@ 0000000180038c00     PluginSrv.obj
 0002:00002c70       ??_C@_1GK@OLPCHMBE@?$AAP?$AAi?$AAp?$AAe?$AAS?$AAe?$AAr?$AAv?$AAe?$AAr?$AAT?$AAh?$AAr?$AAe?$AAa?$AAd?$AA?3?$AAC?$AAo?$AAn?$AAn?$AAe?$AAc?$AAt?$AAN?$AAa?$AAm?$AAe?$AAd?$AAP?$AAi?$AAp@ 0000000180038c70     PluginSrv.obj
 0002:00002ce0       ??_C@_1HG@LHMKOAMG@?$AAP?$AAi?$AAp?$AAe?$AAS?$AAe?$AAr?$AAv?$AAe?$AAr?$AAT?$AAh?$AAr?$AAe?$AAa?$AAd?$AA?3?$AAW?$AAa?$AAi?$AAt?$AAF?$AAo?$AAr?$AAM?$AAu?$AAl?$AAt?$AAi?$AAp?$AAl?$AAe@ 0000000180038ce0     PluginSrv.obj
 0002:00002d60       ??_C@_1HA@EGHGJDPG@?$AAP?$AAi?$AAp?$AAe?$AAS?$AAe?$AAr?$AAv?$AAe?$AAr?$AAT?$AAh?$AAr?$AAe?$AAa?$AAd?$AA?3?$AAG?$AAe?$AAt?$AAO?$AAv?$AAe?$AAr?$AAl?$AAa?$AAp?$AAp?$AAe?$AAd?$AAR?$AAe@ 0000000180038d60     PluginSrv.obj
 0002:00002dd0       ??_C@_19CDGLJBOD@?$AA?4?$AAc?$AAo?$AAm?$AA?$AA@ 0000000180038dd0     Execute.obj
 0002:00002de0       ??_C@_19IGNAGDCF@?$AA?4?$AAb?$AAt?$AAm?$AA?$AA@ 0000000180038de0     Execute.obj
 0002:00002df0       ??_C@_19PINKOIBI@?$AA?4?$AAb?$AAa?$AAt?$AA?$AA@ 0000000180038df0     Execute.obj
 0002:00002e00       ??_C@_19BDKLHPGC@?$AA?4?$AAc?$AAm?$AAd?$AA?$AA@ 0000000180038e00     Execute.obj
 0002:00002e10       ??_C@_0P@LKABJJMO@IsWow64Process?$AA@ 0000000180038e10     Execute.obj
 0002:00002e20       ??_C@_1GK@PPEHOOAL@?$AAS?$AAO?$AAF?$AAT?$AAW?$AAA?$AAR?$AAE?$AA?2?$AAM?$AAi?$AAc?$AAr?$AAo?$AAs?$AAo?$AAf?$AAt?$AA?2?$AAW?$AAi?$AAn?$AAd?$AAo?$AAw?$AAs?$AA?2?$AAC?$AAu?$AAr?$AAr?$AAe@ 0000000180038e20     Execute.obj
 0002:00002e90       ??_C@_0M@HLOHPNFA@RegCloseKey?$AA@ 0000000180038e90     Execute.obj
 0002:00002ea0       ??_C@_0BB@GLNAEDBD@RegQueryValueExW?$AA@ 0000000180038ea0     Execute.obj
 0002:00002eb8       ??_C@_0O@COHOBMLB@RegOpenKeyExW?$AA@ 0000000180038eb8     Execute.obj
 0002:00002ec8       ??_C@_1BK@CJEOECB@?$AAA?$AAd?$AAv?$AAA?$AAp?$AAi?$AA3?$AA2?$AA?4?$AAd?$AAl?$AAl?$AA?$AA@ 0000000180038ec8     Execute.obj
 0002:00002ee8       ??_C@_19IJOJOJIB@?$AAP?$AAA?$AAT?$AAH?$AA?$AA@ 0000000180038ee8     Execute.obj
 0002:00002f00       ??_C@_1EE@FMPFHHED@?$AA?4?$AAC?$AAO?$AAM?$AA?$DL?$AA?4?$AAE?$AAX?$AAE?$AA?$DL?$AA?4?$AAB?$AAA?$AAT?$AA?$DL?$AA?4?$AAC?$AAM?$AAD?$AA?$DL?$AA?4?$AAV?$AAB?$AAS?$AA?$DL?$AA?4?$AAJ?$AAS?$AA?$DL?$AA?4?$AAW?$AAS@ 0000000180038f00     Execute.obj
 0002:00002f48       ??_C@_1BA@HAHEJCII@?$AAP?$AAA?$AAT?$AAH?$AAE?$AAX?$AAT?$AA?$AA@ 0000000180038f48     Execute.obj
 0002:00002f58       ??_C@_1BA@LEPJIIOK@?$AAU?$AAn?$AAk?$AAn?$AAo?$AAw?$AAn?$AA?$AA@ 0000000180038f58     ConEmuCheck.obj
 0002:00002f70       ??_C@_1EM@INHGIPLC@?$AA?$CF?$AAs?$AA?4?$AA?$CF?$AAu?$AA?3?$AA?5?$AAC?$AAr?$AAe?$AAa?$AAt?$AAe?$AAF?$AAi?$AAl?$AAe?$AA?$CI?$AA?$CF?$AAs?$AA?$CJ?$AA?5?$AAf?$AAa?$AAi?$AAl?$AAe?$AAd?$AA?0?$AA?5?$AAc?$AAo@ 0000000180038f70     ConEmuCheck.obj
 0002:00002fc0       ??_C@_1FE@NLMABECO@?$AA?$CF?$AAs?$AA?4?$AA?$CF?$AAu?$AA?3?$AA?5?$AAC?$AAr?$AAe?$AAa?$AAt?$AAe?$AAF?$AAi?$AAl?$AAe?$AA?$CI?$AA?$CF?$AAs?$AA?$CJ?$AA?5?$AAf?$AAa?$AAi?$AAl?$AAe?$AAd?$AA?0?$AA?5?$AAc?$AAo@ 0000000180038fc0     ConEmuCheck.obj
 0002:00003018       ??_C@_1BA@ENOLHKBK@?$AA?0?$AA?5?$AAT?$AAr?$AAi?$AAe?$AAs?$AA?$AA@ 0000000180039018     ConEmuCheck.obj
 0002:00003028       ??_C@_1BG@JOOGAEPM@?$AA?0?$AA?5?$AAD?$AAu?$AAr?$AAa?$AAt?$AAi?$AAo?$AAn?$AA?$AA@ 0000000180039028     ConEmuCheck.obj
 0002:00003040       ??_C@_1DA@LCPELGGN@?$AAC?$AAo?$AAn?$AAE?$AAm?$AAu?$AAG?$AAu?$AAi?$AAI?$AAn?$AAf?$AAo?$AAM?$AAa?$AAp?$AAp?$AAi?$AAn?$AAg?$AA?4?$AA?$CF?$AAu?$AA?$AA@ 0000000180039040     ConEmuCheck.obj
 0002:00003070       ??_C@_1M@GJCOMIJN@?$AAF?$AAr?$AAL?$AAi?$AAb?$AA?$AA@ 0000000180039070     ConEmuCheck.obj
 0002:00003080       ??_C@_1M@KJKJNBFD@?$AAL?$AAd?$AAL?$AAi?$AAb?$AA?$AA@ 0000000180039080     ConEmuCheck.obj
 0002:00003090       ??_C@_1BA@OBPMCEAG@?$AAC?$AAh?$AAa?$AAn?$AAg?$AAe?$AAd?$AA?$AA@ 0000000180039090     ConEmuCheck.obj
 0002:000030a0       ??_C@_1O@EHPOJOIH@?$AAS?$AAr?$AAL?$AAo?$AAa?$AAd?$AA?$AA@ 00000001800390a0     ConEmuCheck.obj
 0002:000030b0       ??_C@_1O@PPMFEOGL@?$AAH?$AAk?$AAL?$AAo?$AAa?$AAd?$AA?$AA@ 00000001800390b0     ConEmuCheck.obj
 0002:000030c0       ??_C@_1O@DEDLEBMG@?$AAI?$AAn?$AAj?$AAe?$AAc?$AAt?$AA?$AA@ 00000001800390c0     ConEmuCheck.obj
 0002:000030d0       ??_C@_1O@GMCJGMIO@?$AAC?$AAr?$AAe?$AAa?$AAt?$AAe?$AA?$AA@ 00000001800390d0     ConEmuCheck.obj
 0002:000030e0       ??_C@_1M@JLDCNMKN@?$AAS?$AAh?$AAe?$AAl?$AAl?$AA?$AA@ 00000001800390e0     ConEmuCheck.obj
 0002:000030f0       ??_C@_1CM@KHMDALMN@?$AA?2?$AA?2?$AA?$CF?$AAs?$AA?2?$AAp?$AAi?$AAp?$AAe?$AA?2?$AAC?$AAo?$AAn?$AAE?$AAm?$AAu?$AAG?$AAu?$AAi?$AA?$CF?$AAu?$AA?$AA@ 00000001800390f0     ConEmuCheck.obj
 0002:00003120       ??_C@_1CM@OPJKOFLA@?$AA?2?$AA?2?$AA?$CF?$AAs?$AA?2?$AAp?$AAi?$AAp?$AAe?$AA?2?$AAC?$AAo?$AAn?$AAE?$AAm?$AAu?$AAS?$AAr?$AAv?$AA?$CF?$AAu?$AA?$AA@ 0000000180039120     ConEmuCheck.obj
 0002:00003150       ??_C@_1CK@IFINLJPE@?$AA?2?$AA?2?$AA?$CF?$AAs?$AA?2?$AAp?$AAi?$AAp?$AAe?$AA?2?$AAC?$AAo?$AAn?$AAE?$AAm?$AAu?$AAH?$AAk?$AA?$CF?$AAu?$AA?$AA@ 0000000180039150     ConEmuCheck.obj
 0002:00003180       ??_C@_0BF@PIPEOHKL@GetRealConsoleWindow?$AA@ 0000000180039180     ConEmuCheck.obj
 0002:00003198       ??_C@_0M@DLDCCGNP@MessageBoxW?$AA@ 0000000180039198     ConEmuCheck.obj
 0002:000031a8       ??_C@_1BG@GACMCKCK@?$AAU?$AAs?$AAe?$AAr?$AA3?$AA2?$AA?4?$AAd?$AAl?$AAl?$AA?$AA@ 00000001800391a8     ConEmuCheck.obj
 0002:000031c0       ??_C@_1BG@PIGCKNCG@?$AAC?$AAo?$AAn?$AAE?$AAm?$AAu?$AA?4?$AAe?$AAx?$AAe?$AA?$AA@ 00000001800391c0     ConEmuCheckEx.obj
 0002:000031d8       ??_C@_1BK@BNOCAHHB@?$AAC?$AAo?$AAn?$AAE?$AAm?$AAu?$AA6?$AA4?$AA?4?$AAe?$AAx?$AAe?$AA?$AA@ 00000001800391d8     ConEmuCheckEx.obj
 0002:000031f8       ??_C@_1CG@HCDHJIEM@?$AAC?$AAo?$AAn?$AAE?$AAm?$AAu?$AA?2?$AAC?$AAo?$AAn?$AAE?$AAm?$AAu?$AAC?$AA?4?$AAe?$AAx?$AAe?$AA?$AA@ 00000001800391f8     ConEmuCheckEx.obj
 0002:00003220       ??_C@_1CK@KBHIPEEC@?$AAC?$AAo?$AAn?$AAE?$AAm?$AAu?$AA?2?$AAC?$AAo?$AAn?$AAE?$AAm?$AAu?$AAC?$AA6?$AA4?$AA?4?$AAe?$AAx?$AAe?$AA?$AA@ 0000000180039220     ConEmuCheckEx.obj
 0002:00003250       ??_C@_1CA@CNCOCNJD@?$AAS?$AAo?$AAf?$AAt?$AAw?$AAa?$AAr?$AAe?$AA?2?$AAC?$AAo?$AAn?$AAE?$AAm?$AAu?$AA?$AA@ 0000000180039250     ConEmuCheckEx.obj
 0002:00003270       ??_C@_1CC@PDEDDOGK@?$AA?2?$AAP?$AAl?$AAu?$AAg?$AAi?$AAn?$AAs?$AA?2?$AAC?$AAo?$AAn?$AAE?$AAm?$AAu?$AA?2?$AA?$AA@ 0000000180039270     ConEmuCheckEx.obj
 0002:00003298       ??_C@_1CI@PDOPFPLH@?$AAV?$AAi?$AAr?$AAt?$AAu?$AAa?$AAl?$AAC?$AAo?$AAn?$AAs?$AAo?$AAl?$AAe?$AAC?$AAl?$AAa?$AAs?$AAs?$AA?$AA@ 0000000180039298     ConEmuCheckEx.obj
 0002:000032c0       ??_C@_0BK@DNNLOFO@SetSecurityDescriptorDacl?$AA@ 00000001800392c0     MSecurity.obj
 0002:000032e0       ??_C@_0BN@FNLANPJJ@InitializeSecurityDescriptor?$AA@ 00000001800392e0     MSecurity.obj
 0002:00003300       ??_C@_0O@GKCEJBAA@InitializeAcl?$AA@ 0000000180039300     MSecurity.obj
 0002:00003310       ??_C@_0N@HBKDHKNL@GetLengthSid?$AA@ 0000000180039310     MSecurity.obj
 0002:00003320       ??_C@_0BJ@ECIKFEOL@AllocateAndInitializeSid?$AA@ 0000000180039320     MSecurity.obj
 0002:00003340       ??_C@_0BD@EIGAJLOG@AddAccessDeniedAce?$AA@ 0000000180039340     MSecurity.obj
 0002:00003358       ??_C@_0BE@IPKPLIM@AddAccessAllowedAce?$AA@ 0000000180039358     MSecurity.obj
 0002:00003370       ??_C@_1BK@BIGILECK@?$AAA?$AAd?$AAv?$AAa?$AAp?$AAi?$AA3?$AA2?$AA?4?$AAd?$AAl?$AAl?$AA?$AA@ 0000000180039370     MSecurity.obj
 0002:00003390       ??_C@_1BO@HJHEFHMO@?$AAK?$AAe?$AAr?$AAn?$AAe?$AAl?$AAB?$AAa?$AAs?$AAe?$AA?4?$AAd?$AAl?$AAl?$AA?$AA@ 0000000180039390     MSecurity.obj
 0002:000033b0       ??_C@_15LKGMKBFA@?$AA0?$AA0?$AA?$AA@ 00000001800393b0     MStrSafe.obj
 0002:000033b8       ??_C@_1BC@LMIJMNIA@?$AA0?$AA0?$AA0?$AA0?$AA0?$AA0?$AA0?$AA0?$AA?$AA@ 00000001800393b8     MStrSafe.obj
 0002:000033d0       ??_C@_08LEDEEJEF@00000000?$AA@ 00000001800393d0     MStrSafe.obj
 0002:000033e0       ??_C@_1O@GNPNAMOC@?$AA0?$AAx?$AA?$CF?$AA0?$AA8?$AAX?$AA?$AA@ 00000001800393e0     SetEnvVar.obj
 0002:000033f0       ??_C@_1BE@GIIMEDBE@?$AAC?$AAo?$AAn?$AAE?$AAm?$AAu?$AAP?$AAI?$AAD?$AA?$AA@ 00000001800393f0     SetEnvVar.obj
 0002:00003404       ??_C@_15EFLNJKHH@?$AA?$CF?$AAu?$AA?$AA@ 0000000180039404     SetEnvVar.obj
 0002:00003410       ??_C@_1BG@CJNOKBPK@?$AAC?$AAo?$AAn?$AAE?$AAm?$AAu?$AAH?$AAW?$AAN?$AAD?$AA?$AA@ 0000000180039410     SetEnvVar.obj
 0002:00003428       ??_C@_1BO@DIAPFMAN@?$AAC?$AAo?$AAn?$AAE?$AAm?$AAu?$AAB?$AAa?$AAc?$AAk?$AAH?$AAW?$AAN?$AAD?$AA?$AA@ 0000000180039428     SetEnvVar.obj
 0002:00003448       ??_C@_1BO@BBOAAODE@?$AAC?$AAo?$AAn?$AAE?$AAm?$AAu?$AAD?$AAr?$AAa?$AAw?$AAH?$AAW?$AAN?$AAD?$AA?$AA@ 0000000180039448     SetEnvVar.obj
 0002:00003470       ??_C@_1EA@DNEBDKPD@?$AAC?$AAa?$AAn?$AA?8?$AAt?$AA?5?$AAM?$AAa?$AAp?$AAV?$AAi?$AAe?$AAw?$AAO?$AAf?$AAF?$AAi?$AAl?$AAe?$AA?4?$AA?5?$AAE?$AAr?$AAr?$AAC?$AAo?$AAd?$AAe?$AA?$DN?$AA?$CF?$AAi?$AA?$AA@ 0000000180039470     WinConsole.obj
 0002:000034b0       ??_C@_1GM@IBJJIODM@?$AAC?$AAa?$AAn?$AA?8?$AAt?$AA?5?$AAC?$AAr?$AAe?$AAa?$AAt?$AAe?$AAF?$AAi?$AAl?$AAe?$AAM?$AAa?$AAp?$AAp?$AAi?$AAn?$AAg?$AA?$CI?$AAg?$AAh?$AAC?$AAo?$AAn?$AAs?$AAo?$AAl@ 00000001800394b0     WinConsole.obj
 0002:00003520       ??_C@_0BN@BJODIFNA@GetConsoleScreenBufferInfoEx?$AA@ 0000000180039520     WinConsole.obj
 0002:00003540       ??_C@_0BN@MIEFGKAE@SetConsoleScreenBufferInfoEx?$AA@ 0000000180039540     WinConsole.obj
 0002:00003560       ??_C@_0BI@OEHNMHCG@GetCurrentConsoleFontEx?$AA@ 0000000180039560     WinConsole.obj
 0002:00003578       ??_C@_1BO@CJPKCNHF@?$AAL?$AAu?$AAc?$AAi?$AAd?$AAa?$AA?5?$AAC?$AAo?$AAn?$AAs?$AAo?$AAl?$AAe?$AA?$AA@ 0000000180039578     WinConsole.obj
 0002:00003598       ??_C@_0BI@PCBACGEE@SetCurrentConsoleFontEx?$AA@ 0000000180039598     WinConsole.obj
 0002:000035b0       ??_C@_1CO@DAOCNAIJ@?$AAN?$AAu?$AAm?$AAb?$AAe?$AAr?$AAO?$AAf?$AAH?$AAi?$AAs?$AAt?$AAo?$AAr?$AAy?$AAB?$AAu?$AAf?$AAf?$AAe?$AAr?$AAs?$AA?$AA@ 00000001800395b0     WinConsole.obj
 0002:000035e0       ??_C@_1CE@BJHMHGLF@?$AAH?$AAi?$AAs?$AAt?$AAo?$AAr?$AAy?$AAB?$AAu?$AAf?$AAf?$AAe?$AAr?$AAS?$AAi?$AAz?$AAe?$AA?$AA@ 00000001800395e0     WinConsole.obj
 0002:00003608       ??_C@_1BO@IPFLJP@?$AAC?$AAo?$AAn?$AAs?$AAo?$AAl?$AAe?$AA?2?$AAC?$AAo?$AAn?$AAE?$AAm?$AAu?$AA?$AA@ 0000000180039608     WinConsole.obj
 0002:00003630       ??_C@_1EM@OAOIIPGN@?$AAC?$AAo?$AAn?$AAs?$AAo?$AAl?$AAe?$AA?2?$AA?$CF?$AAS?$AAy?$AAs?$AAt?$AAe?$AAm?$AAR?$AAo?$AAo?$AAt?$AA?$CF?$AA_?$AAs?$AAy?$AAs?$AAt?$AAe?$AAm?$AA3?$AA2?$AA_?$AAc?$AAm@ 0000000180039630     WinConsole.obj
 0002:00003680       ??_C@_1BC@MAHCNJIF@?$AAF?$AAo?$AAn?$AAt?$AAS?$AAi?$AAz?$AAe?$AA?$AA@ 0000000180039680     WinConsole.obj
 0002:00003698       ??_C@_1BA@GIKDDGPH@?$AAC?$AAo?$AAn?$AAs?$AAo?$AAl?$AAe?$AA?$AA@ 0000000180039698     WinConsole.obj
 0002:000036a8       ??_C@_1CE@JDPKDNEC@?$AA0?$AAx?$AA?$CF?$AA0?$AA8?$AAX?$AA?3?$AA?5?$AA?$CF?$AAs?$AA?5?$AA?9?$AA?5?$AA?8?$AA?$CF?$AAs?$AA?8?$AA?$AA@ 00000001800396a8     WinObjects.obj
 0002:000036d0       ??_C@_1CM@FCHOBPGC@?$AA?$DM?$AAG?$AAe?$AAt?$AAC?$AAl?$AAa?$AAs?$AAs?$AAN?$AAa?$AAm?$AAe?$AA?5?$AAf?$AAa?$AAi?$AAl?$AAe?$AAd?$AA?$DO?$AA?$AA@ 00000001800396d0     WinObjects.obj
 0002:00003700       ??_C@_0P@EIHOONHO@GetWindowTextW?$AA@ 0000000180039700     WinObjects.obj
 0002:00003710       ??_C@_0O@ONDMICJK@GetClassNameW?$AA@ 0000000180039710     WinObjects.obj
 0002:00003720       ??_C@_1DM@LIIMLPNP@?$AA0?$AAx?$AA?$CF?$AA0?$AA8?$AAX?$AA?3?$AA?5?$AAI?$AAn?$AAv?$AAa?$AAl?$AAi?$AAd?$AA?5?$AAw?$AAi?$AAn?$AAd?$AAo?$AAw?$AA?5?$AAh?$AAa?$AAn?$AAd?$AAl?$AAe?$AA?$AA@ 0000000180039720     WinObjects.obj
 0002:00003760       ??_C@_1O@DPFEOIGE@?$AA?$DM?$AAN?$AAU?$AAL?$AAL?$AA?$DO?$AA?$AA@ 0000000180039760     WinObjects.obj
 0002:00003770       ??_C@_08DBCCILIB@IsWindow?$AA@ 0000000180039770     WinObjects.obj
 0002:00003780       ??_C@_19DOGDICKI@?$AA?4?$AAe?$AAx?$AAe?$AA?$AA@ 0000000180039780     WinObjects.obj
 0002:00003790       ??_C@_1BC@NIMEGACF@?$AA?$DM?$AA?$DO?$AA?$CI?$AA?$CJ?$AA?$CG?$AA?$HM?$AA?$FO?$AA?$CC?$AA?$AA@ 0000000180039790     WinObjects.obj
 0002:000037a8       ??_C@_1BM@PHJIAKGA@?$AAS?$AAo?$AAf?$AAt?$AAw?$AAa?$AAr?$AAe?$AA?2?$AAW?$AAi?$AAn?$AAe?$AA?$AA@ 00000001800397a8     WinObjects.obj
 0002:000037d0       ??_C@_1FI@LJIDBGHG@?$AAS?$AAy?$AAs?$AAt?$AAe?$AAm?$AA?2?$AAC?$AAu?$AAr?$AAr?$AAe?$AAn?$AAt?$AAC?$AAo?$AAn?$AAt?$AAr?$AAo?$AAl?$AAS?$AAe?$AAt?$AA?2?$AAC?$AAo?$AAn?$AAt?$AAr?$AAo?$AAl@ 00000001800397d0     WinObjects.obj
 0002:00003830       ??_C@_1FA@IMIIAJJK@?$AAS?$AAy?$AAs?$AAt?$AAe?$AAm?$AA?2?$AAC?$AAu?$AAr?$AAr?$AAe?$AAn?$AAt?$AAC?$AAo?$AAn?$AAt?$AAr?$AAo?$AAl?$AAS?$AAe?$AAt?$AA?2?$AAC?$AAo?$AAn?$AAt?$AAr?$AAo?$AAl@ 0000000180039830     WinObjects.obj
 0002:00003880       ??_C@_1BI@ONABKHKJ@?$AA?4?$AAv?$AAs?$AAh?$AAo?$AAs?$AAt?$AA?4?$AAe?$AAx?$AAe?$AA?$AA@ 0000000180039880     WinObjects.obj
 0002:00003898       ??_C@_1BI@MPDCNJBA@?$AAt?$AAl?$AAn?$AAt?$AAs?$AAv?$AAr?$AA?4?$AAe?$AAx?$AAe?$AA?$AA@ 0000000180039898     WinObjects.obj
 0002:000038b0       ??_C@_1BK@HHKNEJDC@?$AAt?$AAl?$AAn?$AAt?$AAs?$AAe?$AAs?$AAs?$AA?4?$AAe?$AAx?$AAe?$AA?$AA@ 00000001800398b0     WinObjects.obj
 0002:000038d0       ??_C@_1BE@GJOFHIHD@?$AAn?$AAt?$AAd?$AAl?$AAl?$AA?4?$AAd?$AAl?$AAl?$AA?$AA@ 00000001800398d0     WinObjects.obj
 0002:000038e8       ??_C@_1BA@PHJPMKEE@?$AAC?$AAo?$AAm?$AAS?$AAp?$AAe?$AAc?$AA?$AA@ 00000001800398e8     WinObjects.obj
 0002:000038f8       ??_C@_1BC@GGAFKBOD@?$AAC?$AAo?$AAm?$AAS?$AAp?$AAe?$AAc?$AAC?$AA?$AA@ 00000001800398f8     WinObjects.obj
 0002:0000390c       ??_C@_13EJFHHPOP@?$AA?$CF?$AA?$AA@ 000000018003990c     WinObjects.obj
 0002:00003910       ??_C@_0CL@LKNLDHJE@?$CFs?3?5CreateFile?$CI?$CFs?$CJ?5failed?0?5ErrCo@ 0000000180039910     WinObjects.obj
 0002:0000393c       ??_C@_03BBKEAIF@?$DP?$DP?$DP?$AA@ 000000018003993c     WinObjects.obj
 0002:00003940       ??_C@_1BE@IAGKIAJL@?$AA?$CF?$AAs?$AA?9?$AA?$CF?$AAu?$AA?4?$AAl?$AAo?$AAg?$AA?$AA@ 0000000180039940     WinObjects.obj
 0002:00003958       ??_C@_1BA@DDFFCLKH@?$AAL?$AAo?$AAg?$AAF?$AAi?$AAl?$AAe?$AA?$AA@ 0000000180039958     WinObjects.obj
 0002:00003968       ??_C@_1BG@DLECNNKO@?$AAC?$AAo?$AAn?$AAE?$AAm?$AAu?$AAL?$AAo?$AAg?$AAs?$AA?$AA@ 0000000180039968     WinObjects.obj
 0002:00003980       ??_C@_1BI@NCBGIBAH@?$AA?2?$AAC?$AAo?$AAn?$AAE?$AAm?$AAu?$AAL?$AAo?$AAg?$AAs?$AA?$AA@ 0000000180039980     WinObjects.obj
 0002:00003998       ??_C@_1DM@DCKBHGAL@?$AAC?$AAo?$AAn?$AAE?$AAm?$AAu?$AA?5?$AA?$CF?$AAu?$AA?$CF?$AA0?$AA2?$AAu?$AA?$CF?$AA0?$AA2?$AAu?$AA?$CF?$AAs?$AA?$FL?$AA?$CF?$AAs?$AA?$FN?$AA?5?$AAl?$AAo?$AAg?$AA?$CF?$AAs?$AA?$AA@ 0000000180039998     WinObjects.obj
 0002:000039d4       ??_C@_15ODFHNFBK@?$AA6?$AA4?$AA?$AA@ 00000001800399d4     WinObjects.obj
 0002:000039e0       ??_C@_19IOJPMNAJ@?$AA?$FL?$AA?$CF?$AAu?$AA?$FN?$AA?$AA@ 00000001800399e0     WinObjects.obj
 0002:000039f0       ??_C@_1BO@PGOKFFMG@?$AA?$DM?$AAN?$AAu?$AAl?$AAl?$AAF?$AAi?$AAl?$AAe?$AAN?$AAa?$AAm?$AAe?$AA?$DO?$AA?$AA@ 00000001800399f0     WinObjects.obj
 0002:00003a10       ??_C@_02PCIJFNDE@?$AN?6?$AA@ 0000000180039a10     WinObjects.obj
 0002:00003a18       ??_C@_0BD@LMGLPPME@?$CFi?3?$CF02i?3?$CF02i?4?$CF03i?5?$AA@ 0000000180039a18     WinObjects.obj
 0002:00003a30       ??_C@_1II@CMPHBKOP@?$AA?5?$AA?5?$AA?$CF?$AA0?$AA8?$AAX?$AA?3?$AA?5?$AA?$HL?$AA?$CF?$AAi?$AA?0?$AA?$CF?$AAi?$AA?$HN?$AA?9?$AA?$HL?$AA?$CF?$AAi?$AA?0?$AA?$CF?$AAi?$AA?$HN?$AA?5?$AA?$CI?$AA?$CF?$AAi?$AAx?$AA?$CF?$AAi?$AA?$CJ?$AA?0@ 0000000180039a30     WinObjects.obj
 0002:00003ab8       ??_C@_1BM@PFBFJBGG@?$AA?5?$AA?$DM?$AA?$DM?$AA?$DN?$AA?$DN?$AA?5?$AAP?$AAr?$AAi?$AAm?$AAa?$AAr?$AAy?$AA?$AA@ 0000000180039ab8     WinObjects.obj
 0002:00003ad8       ??_C@_1DG@DOBKDOAG@?$AA?5?$AA?5?$AA?$CF?$AA0?$AA8?$AAX?$AA?$CF?$AA0?$AA8?$AAX?$AA?9?$AA?$CF?$AA0?$AA8?$AAX?$AA?$CF?$AA0?$AA8?$AAX?$AA?5?$AA?$CF?$AA8?$AAX?$AA?5?$AA?$CF?$AAs?$AA?$AA@ 0000000180039ad8     WinObjects.obj
 0002:00003b10       ??_C@_08DINCNMJP@Modules?3?$AA@ 0000000180039b10     WinObjects.obj
 0002:00003b20       ??_C@_09BGFNCBHP@Monitors?3?$AA@ 0000000180039b20     WinObjects.obj
 0002:00003b30       ??_C@_1JA@LDPGAPHL@?$AAD?$AAi?$AAs?$AAp?$AAl?$AAa?$AAy?$AA?3?$AA?5?$AAb?$AAp?$AAp?$AA?$DN?$AA?$CF?$AAi?$AA?0?$AA?5?$AAp?$AAl?$AAa?$AAn?$AAe?$AAs?$AA?$DN?$AA?$CF?$AAi?$AA?0?$AA?5?$AAa?$AAl?$AAi?$AAg@ 0000000180039b30     WinObjects.obj
 0002:00003bc0       ??_C@_1CA@GLLPMFOC@?$AAC?$AAu?$AAr?$AAs?$AAo?$AAr?$AA?3?$AA?5?$AA?$HL?$AA?$CF?$AAi?$AA?0?$AA?$CF?$AAi?$AA?$HN?$AA?$AA@ 0000000180039bc0     WinObjects.obj
 0002:00003be0       ??_C@_1FI@GIIDCDCK@?$AAF?$AAo?$AAr?$AAe?$AAg?$AAr?$AAo?$AAu?$AAn?$AAd?$AA?3?$AA?5?$AAx?$AA?$CF?$AA0?$AA8?$AAX?$AA?5?$AA?$HL?$AA?$CF?$AAi?$AA?0?$AA?$CF?$AAi?$AA?$HN?$AA?9?$AA?$HL?$AA?$CF?$AAi?$AA?0?$AA?$CF?$AAi@ 0000000180039be0     WinObjects.obj
 0002:00003c38       ??_C@_09IPBNJABJ@ConFont?3?5?$AA@ 0000000180039c38     WinObjects.obj
 0002:00003c48       ??_C@_09PFIBPAJJ@PathEnv?3?5?$AA@ 0000000180039c48     WinObjects.obj
 0002:00003c58       ??_C@_09NOAGLLIK@WorkDir?3?5?$AA@ 0000000180039c58     WinObjects.obj
 0002:00003c68       ??_C@_09KNFABPJJ@ExecMod?3?5?$AA@ 0000000180039c68     WinObjects.obj
 0002:00003c78       ??_C@_09KKKHCIPO@CmdLine?3?5?$AA@ 0000000180039c78     WinObjects.obj
 0002:00003c88       ??_C@_1BI@PBOMENIN@?$AA?5?$AA0?$AAx?$AA?$CF?$AA0?$AA8?$AAX?$AA?$CF?$AA0?$AA8?$AAX?$AA?$AA@ 0000000180039c88     WinObjects.obj
 0002:00003ca0       ??_C@_1CO@IBCPFHIE@?$AAG?$AAe?$AAt?$AAK?$AAe?$AAy?$AAb?$AAo?$AAa?$AAr?$AAd?$AAL?$AAa?$AAy?$AAo?$AAu?$AAt?$AAL?$AAi?$AAs?$AAt?$AA?3?$AA?$AA@ 0000000180039ca0     WinObjects.obj
 0002:00003cd0       ??_C@_1EM@EHCDIMDG@?$AAG?$AAe?$AAt?$AAK?$AAe?$AAy?$AAb?$AAo?$AAa?$AAr?$AAd?$AAL?$AAa?$AAy?$AAo?$AAu?$AAt?$AAL?$AAi?$AAs?$AAt?$AA?5?$AAf?$AAa?$AAi?$AAl?$AAe?$AAd?$AA?0?$AA?5?$AAc?$AAo@ 0000000180039cd0     WinObjects.obj
 0002:00003d20       ??_C@_1CO@LNAEFIIB@?$AAA?$AAc?$AAt?$AAi?$AAv?$AAe?$AA?5?$AAH?$AAK?$AAL?$AA?3?$AA?5?$AA0?$AAx?$AA?$CF?$AA0?$AA8?$AAX?$AA?$CF?$AA0?$AA8?$AAX?$AA?$AA@ 0000000180039d20     WinObjects.obj
 0002:00003d50       ??_C@_1FA@GCNNEPC@?$AAA?$AAc?$AAt?$AAi?$AAv?$AAe?$AA?5?$AAc?$AAo?$AAn?$AAs?$AAo?$AAl?$AAe?$AA?5?$AAl?$AAa?$AAy?$AAo?$AAu?$AAt?$AA?3?$AA?5?$AAU?$AAn?$AAk?$AAn?$AAo?$AAw?$AAn?$AA?0?$AA?5@ 0000000180039d50     WinObjects.obj
 0002:00003da0       ??_C@_1EC@JJDLIEIL@?$AAA?$AAc?$AAt?$AAi?$AAv?$AAe?$AA?5?$AAc?$AAo?$AAn?$AAs?$AAo?$AAl?$AAe?$AA?5?$AAl?$AAa?$AAy?$AAo?$AAu?$AAt?$AA?5?$AAn?$AAa?$AAm?$AAe?$AA?3?$AA?5?$AA?8?$AA?$CF?$AAs?$AA?8@ 0000000180039da0     WinObjects.obj
 0002:00003de8       ??_C@_0BO@KDJDCIBJ@GetConsoleKeyboardLayoutNameW?$AA@ 0000000180039de8     WinObjects.obj
 0002:00003e10       ??_C@_1CHI@FANJBLCO@?$AAS?$AAt?$AAa?$AAr?$AAt?$AAu?$AAp?$AA?5?$AAi?$AAn?$AAf?$AAo?$AA?$AN?$AA?6?$AA?7?$AAO?$AAs?$AAV?$AAe?$AAr?$AA?3?$AA?5?$AA?$CF?$AAu?$AA?4?$AA?$CF?$AAu?$AA?4?$AA?$CF?$AAu?$AA?4?$AAx@ 0000000180039e10     WinObjects.obj
 0002:00004090       ??_C@_1EO@MPDKFAPM@?$AAL?$AAo?$AAg?$AAS?$AAt?$AAa?$AAr?$AAt?$AAE?$AAn?$AAv?$AA?5?$AAf?$AAa?$AAi?$AAl?$AAe?$AAd?$AA?0?$AA?5?$AAi?$AAn?$AAv?$AAa?$AAl?$AAi?$AAd?$AA?5?$AAa?$AAp?$AAS?$AAt@ 000000018003a090     WinObjects.obj
 0002:000040e0       ??_7CToolTip@@6B@          000000018003a0e0     WinObjects.obj
 0002:000040e8       ??_C@_1CC@KPOKNCMJ@?$AAt?$AAo?$AAo?$AAl?$AAt?$AAi?$AAp?$AAs?$AA_?$AAc?$AAl?$AAa?$AAs?$AAs?$AA3?$AA2?$AA?$AA@ 000000018003a0e8     WinObjects.obj
 0002:00004110       ??_C@_1FA@BFJDIMLC@?$AAC?$AA?3?$AA?2?$AAP?$AAr?$AAo?$AAg?$AAr?$AAa?$AAm?$AA?5?$AAF?$AAi?$AAl?$AAe?$AAs?$AA?2?$AAJ?$AAP?$AAS?$AAo?$AAf?$AAt?$AA?2?$AAT?$AAC?$AAC?$AAL?$AAE?$AA1?$AA3?$AA?2@ 000000018003a110     WinObjects.obj
 0002:00004160       ??_C@_1EO@GBOKIPHE@?$AAC?$AA?3?$AA?2?$AAP?$AAr?$AAo?$AAg?$AAr?$AAa?$AAm?$AA?5?$AAF?$AAi?$AAl?$AAe?$AAs?$AA?2?$AAJ?$AAP?$AAS?$AAo?$AAf?$AAt?$AA?2?$AAT?$AAC?$AAM?$AAD?$AA1?$AA3?$AA?2?$AAt@ 000000018003a160     WinObjects.obj
 0002:000041b0       ??_C@_1CA@CBMLAMC@?$AAI?$AAn?$AAs?$AAt?$AAa?$AAl?$AAl?$AAL?$AAo?$AAc?$AAa?$AAt?$AAi?$AAo?$AAn?$AA?$AA@ 000000018003a1b0     WinObjects.obj
 0002:000041d0       ??_C@_1BI@NAAHPGNK@?$AAJ?$AAP?$AA?5?$AAS?$AAo?$AAf?$AAt?$AAw?$AAa?$AAr?$AAe?$AA?$AA@ 000000018003a1d0     WinObjects.obj
 0002:000041e8       ??_C@_1BE@CCMLAJPM@?$AAP?$AAu?$AAb?$AAl?$AAi?$AAs?$AAh?$AAe?$AAr?$AA?$AA@ 000000018003a1e8     WinObjects.obj
 0002:00004200       ??_C@_1GI@BAAGFBH@?$AAS?$AAO?$AAF?$AAT?$AAW?$AAA?$AAR?$AAE?$AA?2?$AAM?$AAi?$AAc?$AAr?$AAo?$AAs?$AAo?$AAf?$AAt?$AA?2?$AAW?$AAi?$AAn?$AAd?$AAo?$AAw?$AAs?$AA?2?$AAC?$AAu?$AAr?$AAr?$AAe@ 000000018003a200     WinObjects.obj
 0002:00004268       ??_C@_1BA@JFHFEKBP@?$AAt?$AAc?$AAc?$AA?4?$AAe?$AAx?$AAe?$AA?$AA@ 000000018003a268     WinObjects.obj
 0002:00004278       ??_C@_1BE@BGAOJFLF@?$AA?2?$AAt?$AAc?$AAm?$AAd?$AA?4?$AAe?$AAx?$AAe?$AA?$AA@ 000000018003a278     WinObjects.obj
 0002:00004290       ??_C@_19NHABCBNP@?$AAP?$AAa?$AAt?$AAh?$AA?$AA@ 000000018003a290     WinObjects.obj
 0002:000042a0       ??_C@_1CK@HMKJOJBO@?$AAS?$AAO?$AAF?$AAT?$AAW?$AAA?$AAR?$AAE?$AA?2?$AAJ?$AAP?$AA?5?$AAS?$AAo?$AAf?$AAt?$AAw?$AAa?$AAr?$AAe?$AA?$AA@ 000000018003a2a0     WinObjects.obj
 0002:000042d0       ??_C@_1DA@EMHAGABM@?$AA?$CF?$AAC?$AAo?$AAn?$AAE?$AAm?$AAu?$AAB?$AAa?$AAs?$AAe?$AAD?$AAi?$AAr?$AA?$CF?$AA?2?$AAt?$AAc?$AAc?$AA?4?$AAe?$AAx?$AAe?$AA?$AA@ 000000018003a2d0     WinObjects.obj
 0002:00004300       ??_C@_13PJJBFPED@?$AA?$DL?$AA?$AA@ 000000018003a300     WinObjects.obj
 0002:00004308       ??_C@_1BA@DBKIDAPL@?$AAc?$AAm?$AAd?$AA?4?$AAe?$AAx?$AAe?$AA?$AA@ 000000018003a308     WinObjects.obj
 0002:00004318       ??_C@_1CE@ECCAMEKN@?$AA?2?$AAS?$AAy?$AAs?$AAW?$AAO?$AAW?$AA6?$AA4?$AA?2?$AAc?$AAm?$AAd?$AA?4?$AAe?$AAx?$AAe?$AA?$AA@ 000000018003a318     WinObjects.obj
 0002:00004340       ??_C@_1CC@PDLBBEEF@?$AAS?$AAy?$AAs?$AAW?$AAO?$AAW?$AA6?$AA4?$AA?2?$AAc?$AAm?$AAd?$AA?4?$AAe?$AAx?$AAe?$AA?$AA@ 000000018003a340     WinObjects.obj
 0002:00004368       ??_C@_1CE@PMNGKNKL@?$AA?2?$AAS?$AAy?$AAs?$AAt?$AAe?$AAm?$AA3?$AA2?$AA?2?$AAc?$AAm?$AAd?$AA?4?$AAe?$AAx?$AAe?$AA?$AA@ 000000018003a368     WinObjects.obj
 0002:00004390       ??_C@_1CC@ENEHHNED@?$AAS?$AAy?$AAs?$AAt?$AAe?$AAm?$AA3?$AA2?$AA?2?$AAc?$AAm?$AAd?$AA?4?$AAe?$AAx?$AAe?$AA?$AA@ 000000018003a390     WinObjects.obj
 0002:000043b8       ??_C@_1CK@OLMGMMDO@?$AAC?$AAo?$AAn?$AAE?$AAm?$AAu?$AAS?$AAl?$AAe?$AAe?$AAp?$AAI?$AAn?$AAd?$AAi?$AAc?$AAa?$AAt?$AAo?$AAr?$AA?$AA@ 000000018003a3b8     WinObjects.obj
 0002:00005750       __IMPORT_DESCRIPTOR_KERNEL32 000000018003b750     kernel32:KERNEL32.dll
 0002:00005764       __IMPORT_DESCRIPTOR_USER32 000000018003b764     user32:USER32.dll
 0002:00005778       __IMPORT_DESCRIPTOR_GDI32  000000018003b778     gdi32:GDI32.dll
 0002:0000578c       __IMPORT_DESCRIPTOR_ADVAPI32 000000018003b78c     advapi32:ADVAPI32.dll
 0002:000057a0       __IMPORT_DESCRIPTOR_SHELL32 000000018003b7a0     shell32:SHELL32.dll
 0002:000057b4       __IMPORT_DESCRIPTOR_VERSION 000000018003b7b4     version:VERSION.dll
 0002:000057c8       __NULL_IMPORT_DESCRIPTOR   000000018003b7c8     kernel32:KERNEL32.dll
 0003:00000000       ?gnPluginOpenFrom@@3HA     000000018003e000     ConEmuPlugin.obj
 0003:00000004       ?gnReqCommand@@3KA         000000018003e004     ConEmuPlugin.obj
 0003:00000008       ?lastModifiedStateW@@3HA   000000018003e008     ConEmuPlugin.obj
 0003:00000010       ?gFarMode@@3UHookModeFar@@A 000000018003e010     ConEmuPlugin.obj
 0003:00000030       ?gpPluginMenu@@3PAUPluginAndMenuCommands@@A 000000018003e030     ConEmuPlugin.obj
 0003:000000f0       ?Far3Func@@3PAUExportFunc@@A 000000018003e0f0     ConEmuPlugin.obj
 0003:00000180       ?guid_ConEmu@@3U_GUID@@A   000000018003e180     ConEmuPlugin2800.obj
 0003:00000190       ?guid_ConEmuPluginItems@@3U_GUID@@A 000000018003e190     ConEmuPlugin2800.obj
 0003:000001a0       ?guid_ConEmuPluginMenu@@3U_GUID@@A 000000018003e1a0     ConEmuPlugin2800.obj
 0003:000001b0       ?guid_ConEmuGuiMacroDlg@@3U_GUID@@A 000000018003e1b0     ConEmuPlugin2800.obj
 0003:000001c0       ?guid_ConEmuWaitEndSynchro@@3U_GUID@@A 000000018003e1c0     ConEmuPlugin2800.obj
 0003:000001e0       ?ghHooksModule@@3PEAUHINSTANCE__@@EA 000000018003e1e0     ConEmuInjects.obj
 0003:000001e8       ?gbHooksModuleLoaded@@3HA  000000018003e1e8     ConEmuInjects.obj
 0003:000001f0       ?SetHookCallbacks@@3P6A_NPEBDPEB_WPEAUHINSTANCE__@@P6AHPEAUHookCallbackArg@@@ZP6AX3@Z5@ZEA 000000018003e1f0     ConEmuInjects.obj
 0003:000001f8       ?SetLoadLibraryCallback@@3P6AXPEAUHINSTANCE__@@P6AX0@Z1@ZEA 000000018003e1f8     ConEmuInjects.obj
 0003:00000200       ?SetFarHookMode@@3P6AXPEAUHookModeFar@@@ZEA 000000018003e200     ConEmuInjects.obj
 0003:00000208       ?ghExtConModule@@3PEAUHINSTANCE__@@EA 000000018003e208     ConEmuInjects.obj
 0003:00000210       ?SetHookCallbacksExt@@3P6A_NPEBDPEB_WPEAUHINSTANCE__@@P6AHPEAUHookCallbackArg@@@ZP6AX3@Z5@ZEA 000000018003e210     ConEmuInjects.obj
 0003:00000220       ?gszDir2@@3PA_WA           000000018003e220     ConEmuPlugin.obj
 0003:00000a20       ?gpConMap@@3PEAV?$MFileMapping@UCESERVER_CONSOLE_MAPPING_HDR@@@@EA 000000018003ea20     ConEmuPlugin.obj
 0003:00000a28       ?gsbiDetached@@3U_CONSOLE_SCREEN_BUFFER_INFO@@A 000000018003ea28     ConEmuPlugin.obj
 0003:00000a40       ?gszRootKey@@3PA_WA        000000018003ea40     ConEmuPlugin.obj
 0003:00000e50       ?gszDir1@@3PA_WA           000000018003ee50     ConEmuPlugin.obj
 0003:00001650       ?ghPluginModule@@3PEAUHINSTANCE__@@EA 000000018003f650     ConEmuPlugin.obj
 0003:00001658       ?ConEmuHwnd@@3PEAUHWND__@@EA 000000018003f658     ConEmuPlugin.obj
 0003:00001660       ?gdwPreDetachGuiPID@@3KA   000000018003f660     ConEmuPlugin.obj
 0003:00001664       ?gdwServerPID@@3KA         000000018003f664     ConEmuPlugin.obj
 0003:00001668       ?TerminalMode@@3HA         000000018003f668     ConEmuPlugin.obj
 0003:0000166c       ?gnMainThreadId@@3KA       000000018003f66c     ConEmuPlugin.obj
 0003:00001670       ?FarHwnd@@3PEAUHWND__@@EA  000000018003f670     ConEmuPlugin.obj
 0003:00001678       ?gnMainThreadIdInitial@@3KA 000000018003f678     ConEmuPlugin.obj
 0003:0000167c       ?gnMonitorThreadId@@3KA    000000018003f67c     ConEmuPlugin.obj
 0003:00001680       ?ghMonitorThread@@3PEAXEA  000000018003f680     ConEmuPlugin.obj
 0003:00001688       ?ghSetWndSendTabsEvent@@3PEAXEA 000000018003f688     ConEmuPlugin.obj
 0003:00001690       ?gFarVersion@@3UFarVersion@@A 000000018003f690     ConEmuPlugin.obj
 0003:00001698       ?maxTabCount@@3HA          000000018003f698     ConEmuPlugin.obj
 0003:0000169c       ?lastWindowCount@@3HA      000000018003f69c     ConEmuPlugin.obj
 0003:000016a0       ?gnCurTabCount@@3HA        000000018003f6a0     ConEmuPlugin.obj
 0003:000016a4       ?gnCurrentWindowType@@3HA  000000018003f6a4     ConEmuPlugin.obj
 0003:000016a8       ?gpTabs@@3PEAUCESERVER_REQ@@EA 000000018003f6a8     ConEmuPlugin.obj
 0003:000016b0       ?gbIgnoreUpdateTabs@@3HA   000000018003f6b0     ConEmuPlugin.obj
 0003:000016b4       ?gbRequestUpdateTabs@@3HA  000000018003f6b4     ConEmuPlugin.obj
 0003:000016b8       ?gbClosingModalViewerEditor@@3HA 000000018003f6b8     ConEmuPlugin.obj
 0003:000016bc       ?gbUngetDummyMouseEvent@@3HA 000000018003f6bc     ConEmuPlugin.obj
 0003:000016c0       ?gLastMouseReadEvent@@3U_MOUSE_EVENT_RECORD@@A 000000018003f6c0     ConEmuPlugin.obj
 0003:000016d0       ?gnAllowDummyMouseEvent@@3JA 000000018003f6d0     ConEmuPlugin.obj
 0003:000016d4       ?gnDummyMouseEventFromMacro@@3JA 000000018003f6d4     ConEmuPlugin.obj
 0003:000016d8       ?csData@@3PEAVMSection@@EA 000000018003f6d8     ConEmuPlugin.obj
 0003:000016e0       ?gpCmdRet@@3PEAUCESERVER_REQ@@EA 000000018003f6e0     ConEmuPlugin.obj
 0003:000016e8       ?gpData@@3PEAEEA           000000018003f6e8     ConEmuPlugin.obj
 0003:000016f0       ?gpCursor@@3PEAEEA         000000018003f6f0     ConEmuPlugin.obj
 0003:000016f8       ?gnDataSize@@3KA           000000018003f6f8     ConEmuPlugin.obj
 0003:00001700       ?gpReqCommandData@@3PEAXEA 000000018003f700     ConEmuPlugin.obj
 0003:00001710       ?gnMsgTabChanged@@3IA      000000018003f710     ConEmuPlugin.obj
 0003:00001714       ?gbPlugKeyChanged@@3HA     000000018003f714     ConEmuPlugin.obj
 0003:00001718       ?csTabs@@3PEAVMSection@@EA 000000018003f718     ConEmuPlugin.obj
 0003:00001720       ?ghRegMonitorKey@@3PEAUHKEY__@@EA 000000018003f720     ConEmuPlugin.obj
 0003:00001728       ?ghRegMonitorEvt@@3PEAXEA  000000018003f728     ConEmuPlugin.obj
 0003:00001730       ?ghPluginSemaphore@@3PEAXEA 000000018003f730     ConEmuPlugin.obj
 0003:00001738       ?gbNeedPostTabSend@@3HA    000000018003f738     ConEmuPlugin.obj
 0003:0000173c       ?gbNeedPostEditCheck@@3HA  000000018003f73c     ConEmuPlugin.obj
 0003:00001740       ?gsFarLang@@3PA_WA         000000018003f740     ConEmuPlugin.obj
 0003:000017c0       ?gbNeedPostReloadFarInfo@@3HA 000000018003f7c0     ConEmuPlugin.obj
 0003:000017c4       ?gnNeedPostTabSendTick@@3KA 000000018003f7c4     ConEmuPlugin.obj
 0003:000017c8       ?gpConMapInfo@@3PEBUCESERVER_CONSOLE_MAPPING_HDR@@EB 000000018003f7c8     ConEmuPlugin.obj
 0003:000017d0       ?gbStartedUnderConsole2@@3HA 000000018003f7d0     ConEmuPlugin.obj
 0003:000017d4       ?gnSelfPID@@3KA            000000018003f7d4     ConEmuPlugin.obj
 0003:000017d8       ?ghFarInfoMapping@@3PEAXEA 000000018003f7d8     ConEmuPlugin.obj
 0003:000017e0       ?gpFarInfo@@3PEAUCEFAR_INFO_MAPPING@@EA 000000018003f7e0     ConEmuPlugin.obj
 0003:000017e8       ?gpFarInfoMapping@@3PEAUCEFAR_INFO_MAPPING@@EA 000000018003f7e8     ConEmuPlugin.obj
 0003:000017f0       ?ghFarAliveEvent@@3PEAXEA  000000018003f7f0     ConEmuPlugin.obj
 0003:000017f8       ?gPanelRegLeft@@3Utag_PanelViewRegInfo@@A 000000018003f7f8     ConEmuPlugin.obj
 0003:00001828       ?gPanelRegRight@@3Utag_PanelViewRegInfo@@A 000000018003f828     ConEmuPlugin.obj
 0003:00001858       ?ghConEmuCtrlPressed@@3PEAXEA 000000018003f858     ConEmuPlugin.obj
 0003:00001860       ?ghConEmuShiftPressed@@3PEAXEA 000000018003f860     ConEmuPlugin.obj
 0003:00001868       ?gbWaitConsoleInputEmpty@@3HA 000000018003f868     ConEmuPlugin.obj
 0003:0000186c       ?gbWaitConsoleWrite@@3HA   000000018003f86c     ConEmuPlugin.obj
 0003:00001870       ?ghConsoleInputEmpty@@3PEAXEA 000000018003f870     ConEmuPlugin.obj
 0003:00001878       ?ghConsoleWrite@@3PEAXEA   000000018003f878     ConEmuPlugin.obj
 0003:00001880       ?gnSynchroCount@@3HA       000000018003f880     ConEmuPlugin.obj
 0003:00001884       ?gbSynchroProhibited@@3_NA 000000018003f884     ConEmuPlugin.obj
 0003:00001885       ?gbInputSynchroPending@@3_NA 000000018003f885     ConEmuPlugin.obj
 0003:00001888       ?gbInfoW_OK@@3HA           000000018003f888     ConEmuPlugin.obj
 0003:0000188c       ?gnPeekReadCount@@3KA      000000018003f88c     ConEmuPlugin.obj
 0003:00001890       ?gbExitFarCalled@@3HA      000000018003f890     ConEmuPlugin.obj
 0003:0000189c       ?gbWasDetached@@3HA        000000018003f89c     ConEmuPlugin.obj
 0003:000018b0       ?InfoW995@@3PEAUPluginStartupInfo@@EA 000000018003f8b0     ConEmuPlugin995.obj
 0003:000018b8       ?FSFW995@@3PEAUFarStandardFunctions@@EA 000000018003f8b8     ConEmuPlugin995.obj
 0003:00001ad8       ?InfoW1900@@3PEAUPluginStartupInfo@@EA 000000018003fad8     ConEmuPlugin1900.obj
 0003:00001ae0       ?FSFW1900@@3PEAUFarStandardFunctions@@EA 000000018003fae0     ConEmuPlugin1900.obj
 0003:00001d38       ?LastIndex@?1??Color2FgIndex@Far3Color@@SAXKAEAG@Z@4HA 000000018003fd38     ConEmuPlugin1900.obj
 0003:00001d3c       ?LastColor@?1??Color2FgIndex@Far3Color@@SAXKAEAG@Z@4KA 000000018003fd3c     ConEmuPlugin1900.obj
 0003:00001d40       ?LastIndex@?1??Color2BgIndex@Far3Color@@SAXKHAEAG@Z@4HA 000000018003fd40     ConEmuPlugin1900.obj
 0003:00001d44       ?LastColor@?1??Color2BgIndex@Far3Color@@SAXKHAEAG@Z@4KA 000000018003fd44     ConEmuPlugin1900.obj
 0003:00001d50       ?InfoW2800@@3PEAUPluginStartupInfo@@EA 000000018003fd50     ConEmuPlugin2800.obj
 0003:00001d58       ?FSFW2800@@3PEAUFarStandardFunctions@@EA 000000018003fd58     ConEmuPlugin2800.obj
 0003:00001fc0       ?InfoA@@3PEAUPluginStartupInfo@@EA 000000018003ffc0     ConEmuPluginA.obj
 0003:00001fc8       ?FSFA@@3PEAUFarStandardFunctions@@EA 000000018003ffc8     ConEmuPluginA.obj
 0003:000020e0       ?gbNeedBgActivate@@3HA     00000001800400e0     PluginBackground.obj
 0003:000020e4       ?gbBgPluginsAllowed@@3HA   00000001800400e4     PluginBackground.obj
 0003:000020e8       ?gpBgPlugin@@3PEAVCPluginBackground@@EA 00000001800400e8     PluginBackground.obj
 0003:000020f0       ?gszPluginServerPipe@@3PA_WA 00000001800400f0     PluginSrv.obj
 0003:000022f8       ?gpPlugServer@@3PEAU?$PipeServer@UCESERVER_REQ@@@@EA 00000001800402f8     PluginSrv.obj
 0003:00002300       ?ghServerTerminateEvent@@3PEAXEA 0000000180040300     PluginSrv.obj
 0003:00002308       ?gbInCommonShutdown@@3HA   0000000180040308     Common.obj
 0003:00002310       ?OnShutdownConsole@@3P6AXXZEA 0000000180040310     Common.obj
 0003:00002320       ?gpLocalSecurity@@3PEAU_SECURITY_ATTRIBUTES@@EA 0000000180040320     ConEmuCheck.obj
 0003:00002328       ?ghWorkingModule@@3_KA     0000000180040328     ConEmuCheck.obj
 0003:00002388       ?AssertMsgBox@@3P6AHPEB_WI0PEAUHWND__@@_N@ZEA 0000000180040388     MAssert.obj
 0003:00002390       ?ghHeap@@3PEAXEA           0000000180040390     Memory.obj
 0003:00002398       ?gNullDesc@@3PEAVMNullDesc@@EA 0000000180040398     MSecurity.obj
 0003:000023a0       ?gpConsoleInfoStr@@3PEAU_CONSOLE_INFO@@EA 00000001800403a0     WinConsole.obj
 0003:000023a8       ?ghConsoleSection@@3PEAXEA 00000001800403a8     WinConsole.obj
 0003:000023d0       ?Is_Window@@3P6AHPEAUHWND__@@@ZEA 00000001800403d0     WinObjects.obj

 entry point at        0001:000023b0

 Static symbols

 0001:00000810       ?StringValidateDestW@@YAJPEB_W_K_K@Z 0000000180001810 f   ConEmuInjects.obj
 0001:00000850       ?StringCopyWorkerW@@YAJPEA_W_KPEA_KPEB_W1@Z 0000000180001850 f   ConEmuInjects.obj
 0001:000025c0       ?LoadFarVersion@@YA_NAEAUFarVersion@@AEAY0CAA@_W@Z 00000001800035c0 f   ConEmuPlugin.obj
 0001:00004010       ?StringValidateDestW@@YAJPEB_W_K_K@Z 0000000180005010 f   ConEmuPlugin.obj
 0001:00004050       ?StringValidateDestAndLengthW@@YAJPEB_W_KPEA_K_K@Z 0000000180005050 f   ConEmuPlugin.obj
 0001:000040c0       ?StringLengthWorkerW@@YAJPEB_W_KPEA_K@Z 00000001800050c0 f   ConEmuPlugin.obj
 0001:00004160       ?StringCopyWorkerW@@YAJPEA_W_KPEA_KPEB_W1@Z 0000000180005160 f   ConEmuPlugin.obj
 0001:00004250       ?ActivatePlugin@@YAHKPEAXK@Z 0000000180005250 f   ConEmuPlugin.obj
 0001:00004570       ?WaitPluginActivateion@@YAKKPEAPEAXHK@Z 0000000180005570 f   ConEmuPlugin.obj
 0001:00005530       ?ChangeExports@@YA_NPEBUExportFunc@@PEAUHINSTANCE__@@@Z 0000000180006530 f   ConEmuPlugin.obj
 0001:0000b4c0       ?GetPanelDir@@YAPEA_WPEAX@Z 000000018000c4c0 f   ConEmuPlugin995.obj
 0001:0000d6b0       ?LoadFarSettingsW995@@YAXPEAUCEFarInterfaceSettings@@PEAUCEFarPanelSettings@@@Z 000000018000e6b0 f   ConEmuPlugin995.obj
 0001:0000dbe0       ?CopyPanelInfoW@@YAXPEAUPanelInfo@@PEAUtag_BkPanelInfo@PaintBackgroundArg@@@Z 000000018000ebe0 f   ConEmuPlugin995.obj
 0001:0000de70       ?CallGuiMacroProc@@YAXXZ   000000018000ee70 f   ConEmuPlugin995.obj
 0001:0000e220       ?CallGuiMacroDlg@@YA_JPEAXHH_J@Z 000000018000f220 f   ConEmuPlugin995.obj
 0001:0000ef80       ?GetPanelDir@@YAPEA_WPEAX@Z 000000018000ff80 f   ConEmuPlugin1900.obj
 0001:000124f0       ?LoadFarSettingsW1900@@YAXPEAUCEFarInterfaceSettings@@PEAUCEFarPanelSettings@@@Z 00000001800134f0 f   ConEmuPlugin1900.obj
 0001:00012700       ?GetFarSetting@@YAHPEAX_KPEB_W@Z 0000000180013700 f   ConEmuPlugin1900.obj
 0001:00012c50       ?CopyPanelInfoW@@YAXPEAUPanelInfo@@PEAUtag_BkPanelInfo@PaintBackgroundArg@@@Z 0000000180013c50 f   ConEmuPlugin1900.obj
 0001:00012ff0       ?CallGuiMacroProc@@YAXXZ   0000000180013ff0 f   ConEmuPlugin1900.obj
 0001:00013400       ?CallGuiMacroDlg@@YA_JPEAXHH0@Z 0000000180014400 f   ConEmuPlugin1900.obj
 0001:00014340       ?GetPanelDir@@YAPEA_WPEAX@Z 0000000180015340 f   ConEmuPlugin2800.obj
 0001:00016eb0       ?LoadFarSettingsW2800@@YAXPEAUCEFarInterfaceSettings@@PEAUCEFarPanelSettings@@@Z 0000000180017eb0 f   ConEmuPlugin2800.obj
 0001:000170c0       ?GetFarSetting@@YAHPEAX_KPEB_W@Z 00000001800180c0 f   ConEmuPlugin2800.obj
 0001:00017620       ?CopyPanelInfoW@@YAXPEAUPanelInfo@@PEAUtag_BkPanelInfo@PaintBackgroundArg@@@Z 0000000180018620 f   ConEmuPlugin2800.obj
 0001:000179c0       ?CallGuiMacroProc@@YAXXZ   00000001800189c0 f   ConEmuPlugin2800.obj
 0001:00017dd0       ?CallGuiMacroDlg@@YA_JPEAX_J10@Z 0000000180018dd0 f   ConEmuPlugin2800.obj
 0001:00018290       ?MAKEFARVERSION@@YA?AUVersionInfo@@KKKKW4VERSION_STAGE@@@Z 0000000180019290 f   ConEmuPlugin2800.obj
 0001:0001ad20       ?LoadFarSettingsA@@YAXPEAUCEFarInterfaceSettings@@PEAUCEFarPanelSettings@@@Z 000000018001bd20 f   ConEmuPluginA.obj
 0001:0001b0b0       ?CopyPanelInfo@@YAXPEAUPanelInfo@@PEAUtag_BkPanelInfo@PaintBackgroundArg@@@Z 000000018001c0b0 f   ConEmuPluginA.obj
 0001:0001b240       ?CallGuiMacroProc@@YAXXZ   000000018001c240 f   ConEmuPluginA.obj
 0001:0001b660       ?CallGuiMacroDlg@@YA_JPEAXHH_J@Z 000000018001c660 f   ConEmuPluginA.obj
 0001:0001e6c0       ?StringValidateDestW@@YAJPEB_W_K_K@Z 000000018001f6c0 f   PluginBackground.obj
 0001:0001e700       ?StringCopyWorkerW@@YAJPEA_W_KPEA_KPEB_W1@Z 000000018001f700 f   PluginBackground.obj
 0001:000215c0       ?StringValidateDestW@@YAJPEB_W_K_K@Z 00000001800225c0 f   PluginSrv.obj
 0001:00021600       ?StringCopyWorkerW@@YAJPEA_W_KPEA_KPEB_W1@Z 0000000180022600 f   PluginSrv.obj
 0001:00023380       ?StringValidateDestW@@YAJPEB_W_K_K@Z 0000000180024380 f   Execute.obj
 0001:000233c0       ?StringCopyWorkerW@@YAJPEA_W_KPEA_KPEB_W1@Z 00000001800243c0 f   Execute.obj
 0001:00024390       ?StringValidateDestW@@YAJPEB_W_K_K@Z 0000000180025390 f   ConEmuCheck.obj
 0001:000243d0       ?StringCopyWorkerW@@YAJPEA_W_KPEA_KPEB_W1@Z 00000001800253d0 f   ConEmuCheck.obj
 0001:00025c70       ?StringValidateDestW@@YAJPEB_W_K_K@Z 0000000180026c70 f   ConEmuCheckEx.obj
 0001:00025cb0       ?StringCopyWorkerW@@YAJPEA_W_KPEA_KPEB_W1@Z 0000000180026cb0 f   ConEmuCheckEx.obj
 0001:00025e40       ?StringValidateDestAndLengthW@@YAJPEB_W_KPEA_K_K@Z 0000000180026e40 f   ConEmuCheckEx.obj
 0001:00025eb0       ?StringLengthWorkerW@@YAJPEB_W_KPEA_K@Z 0000000180026eb0 f   ConEmuCheckEx.obj
 0001:00026290       ?StringValidateDestA@@YAJPEBD_K_K@Z 0000000180027290 f   Memory.obj
 0001:000262d0       ?StringCopyWorkerA@@YAJPEAD_KPEA_KPEBD1@Z 00000001800272d0 f   Memory.obj
 0001:00026450       ?StringValidateDestW@@YAJPEB_W_K_K@Z 0000000180027450 f   Memory.obj
 0001:00026490       ?StringCopyWorkerW@@YAJPEA_W_KPEA_KPEB_W1@Z 0000000180027490 f   Memory.obj
 0001:0002c2d0       ?StringValidateDestW@@YAJPEB_W_K_K@Z 000000018002d2d0 f   WinObjects.obj
 0001:0002c310       ?StringCopyWorkerW@@YAJPEA_W_KPEA_KPEB_W1@Z 000000018002d310 f   WinObjects.obj
 0001:0002cc90       ?CheckRegKeyExist@@YA_NPEAURegKeyExistArg@@@Z 000000018002dc90 f   WinObjects.obj
 0001:00030260       ?StringValidateDestAndLengthW@@YAJPEB_W_KPEA_K_K@Z 0000000180031260 f   WinObjects.obj
 0001:000302d0       ?StringLengthWorkerW@@YAJPEB_W_KPEA_K@Z 00000001800312d0 f   WinObjects.obj
